
Optional file libmchp_peripheral.a not found

Optional file libmchp_peripheral_32MX795F512L.a not found
Archive member included because of file (symbol)

c:/program files/microchip/xc32/v2.40/bin/bin/../../lib/gcc/pic32mx/4.8.3\libgcc.a(_udivdi3.o)
                              build/default/production/_ext/121402492/sys_tmr.o (__udivdi3)
c:/program files/microchip/xc32/v2.40/bin/bin/../../lib/gcc/pic32mx/4.8.3/../../../../pic32mx/lib\libpic32.a(memcmp.o)
                              build/default/production/_ext/2105109636/sys_fs_media_manager.o (memcmp)
c:/program files/microchip/xc32/v2.40/bin/bin/../../lib/gcc/pic32mx/4.8.3/../../../../pic32mx/lib\libpic32.a(memcpy.o)
                              build/default/production/_ext/2105109636/sys_fs_media_manager.o (memcpy)
c:/program files/microchip/xc32/v2.40/bin/bin/../../lib/gcc/pic32mx/4.8.3/../../../../pic32mx/lib\libpic32.a(memset.o)
                              build/default/production/_ext/1475996069/drv_tmr.o (memset)
c:/program files/microchip/xc32/v2.40/bin/bin/../../lib/gcc/pic32mx/4.8.3/../../../../pic32mx/lib\libpic32.a(strcmp.o)
                              build/default/production/_ext/2105109636/sys_fs_media_manager.o (strcmp)
c:/program files/microchip/xc32/v2.40/bin/bin/../../lib/gcc/pic32mx/4.8.3/../../../../pic32mx/lib\libpic32.a(strcpy.o)
                              build/default/production/_ext/2105109636/sys_fs.o (strcpy)
c:/program files/microchip/xc32/v2.40/bin/bin/../../lib/gcc/pic32mx/4.8.3/../../../../pic32mx/lib\libpic32.a(strlen.o)
                              build/default/production/_ext/2105109636/sys_fs.o (strlen)
c:/program files/microchip/xc32/v2.40/bin/bin/../../lib/gcc/pic32mx/4.8.3/../../../../pic32mx/lib\libpic32.a(default-bootstrap-exception-handler.o)
                              C:\Users\Booo_kat\AppData\Local\Temp\cc6Zd3pF.o (_bootstrap_exception_handler)
c:/program files/microchip/xc32/v2.40/bin/bin/../../lib/gcc/pic32mx/4.8.3/../../../../pic32mx/lib\libpic32.a(default-on-reset.o)
                              C:\Users\Booo_kat\AppData\Local\Temp\cc6Zd3pF.o (_on_reset)
c:/program files/microchip/xc32/v2.40/bin/bin/../../lib/gcc/pic32mx/4.8.3/../../../../pic32mx/lib\libpic32.a(default-on-bootstrap.o)
                              C:\Users\Booo_kat\AppData\Local\Temp\cc6Zd3pF.o (_on_bootstrap)
c:/program files/microchip/xc32/v2.40/bin/bin/../../lib/gcc/pic32mx/4.8.3/../../../../pic32mx/lib\libpic32.a(default-nmi-handler.o)
                              C:\Users\Booo_kat\AppData\Local\Temp\cc6Zd3pF.o (_nmi_handler)
c:/program files/microchip/xc32/v2.40/bin/bin/../../lib/gcc/pic32mx/4.8.3/../../../../pic32mx/lib\libpic32.a(pic32_data_init.o)
                              C:\Users\Booo_kat\AppData\Local\Temp\cc6Zd3pF.o (__pic32_data_init)
c:/program files/microchip/xc32/v2.40/bin/bin/../../lib/gcc/pic32mx/4.8.3/../../../../pic32mx/lib\libpic32.a(general-exception.o)
                              C:\Users\Booo_kat\AppData\Local\Temp\cc6Zd3pF.o (_general_exception_context)
c:/program files/microchip/xc32/v2.40/bin/bin/../../lib/gcc/pic32mx/4.8.3/../../../../pic32mx/lib\libpic32.a(vector0.o)
                              C:\Users\Booo_kat\AppData\Local\Temp\cc0xT7Bt.o (__vector_dispatch_0)
c:/program files/microchip/xc32/v2.40/bin/bin/../../lib/gcc/pic32mx/4.8.3/../../../../pic32mx/lib\libpic32.a(vector1.o)
                              C:\Users\Booo_kat\AppData\Local\Temp\cc0xT7Bt.o (__vector_dispatch_1)
c:/program files/microchip/xc32/v2.40/bin/bin/../../lib/gcc/pic32mx/4.8.3/../../../../pic32mx/lib\libpic32.a(vector2.o)
                              C:\Users\Booo_kat\AppData\Local\Temp\cc0xT7Bt.o (__vector_dispatch_2)
c:/program files/microchip/xc32/v2.40/bin/bin/../../lib/gcc/pic32mx/4.8.3/../../../../pic32mx/lib\libpic32.a(vector3.o)
                              C:\Users\Booo_kat\AppData\Local\Temp\cc0xT7Bt.o (__vector_dispatch_3)
c:/program files/microchip/xc32/v2.40/bin/bin/../../lib/gcc/pic32mx/4.8.3/../../../../pic32mx/lib\libpic32.a(vector5.o)
                              C:\Users\Booo_kat\AppData\Local\Temp\cc0xT7Bt.o (__vector_dispatch_5)
c:/program files/microchip/xc32/v2.40/bin/bin/../../lib/gcc/pic32mx/4.8.3/../../../../pic32mx/lib\libpic32.a(vector6.o)
                              C:\Users\Booo_kat\AppData\Local\Temp\cc0xT7Bt.o (__vector_dispatch_6)
c:/program files/microchip/xc32/v2.40/bin/bin/../../lib/gcc/pic32mx/4.8.3/../../../../pic32mx/lib\libpic32.a(vector7.o)
                              C:\Users\Booo_kat\AppData\Local\Temp\cc0xT7Bt.o (__vector_dispatch_7)
c:/program files/microchip/xc32/v2.40/bin/bin/../../lib/gcc/pic32mx/4.8.3/../../../../pic32mx/lib\libpic32.a(vector8.o)
                              C:\Users\Booo_kat\AppData\Local\Temp\cc0xT7Bt.o (__vector_dispatch_8)
c:/program files/microchip/xc32/v2.40/bin/bin/../../lib/gcc/pic32mx/4.8.3/../../../../pic32mx/lib\libpic32.a(vector9.o)
                              C:\Users\Booo_kat\AppData\Local\Temp\cc0xT7Bt.o (__vector_dispatch_9)
c:/program files/microchip/xc32/v2.40/bin/bin/../../lib/gcc/pic32mx/4.8.3/../../../../pic32mx/lib\libpic32.a(vector10.o)
                              C:\Users\Booo_kat\AppData\Local\Temp\cc0xT7Bt.o (__vector_dispatch_10)
c:/program files/microchip/xc32/v2.40/bin/bin/../../lib/gcc/pic32mx/4.8.3/../../../../pic32mx/lib\libpic32.a(vector11.o)
                              C:\Users\Booo_kat\AppData\Local\Temp\cc0xT7Bt.o (__vector_dispatch_11)
c:/program files/microchip/xc32/v2.40/bin/bin/../../lib/gcc/pic32mx/4.8.3/../../../../pic32mx/lib\libpic32.a(vector12.o)
                              C:\Users\Booo_kat\AppData\Local\Temp\cc0xT7Bt.o (__vector_dispatch_12)
c:/program files/microchip/xc32/v2.40/bin/bin/../../lib/gcc/pic32mx/4.8.3/../../../../pic32mx/lib\libpic32.a(vector13.o)
                              C:\Users\Booo_kat\AppData\Local\Temp\cc0xT7Bt.o (__vector_dispatch_13)
c:/program files/microchip/xc32/v2.40/bin/bin/../../lib/gcc/pic32mx/4.8.3/../../../../pic32mx/lib\libpic32.a(vector14.o)
                              C:\Users\Booo_kat\AppData\Local\Temp\cc0xT7Bt.o (__vector_dispatch_14)
c:/program files/microchip/xc32/v2.40/bin/bin/../../lib/gcc/pic32mx/4.8.3/../../../../pic32mx/lib\libpic32.a(vector15.o)
                              C:\Users\Booo_kat\AppData\Local\Temp\cc0xT7Bt.o (__vector_dispatch_15)
c:/program files/microchip/xc32/v2.40/bin/bin/../../lib/gcc/pic32mx/4.8.3/../../../../pic32mx/lib\libpic32.a(vector16.o)
                              C:\Users\Booo_kat\AppData\Local\Temp\cc0xT7Bt.o (__vector_dispatch_16)
c:/program files/microchip/xc32/v2.40/bin/bin/../../lib/gcc/pic32mx/4.8.3/../../../../pic32mx/lib\libpic32.a(vector17.o)
                              C:\Users\Booo_kat\AppData\Local\Temp\cc0xT7Bt.o (__vector_dispatch_17)
c:/program files/microchip/xc32/v2.40/bin/bin/../../lib/gcc/pic32mx/4.8.3/../../../../pic32mx/lib\libpic32.a(vector18.o)
                              C:\Users\Booo_kat\AppData\Local\Temp\cc0xT7Bt.o (__vector_dispatch_18)
c:/program files/microchip/xc32/v2.40/bin/bin/../../lib/gcc/pic32mx/4.8.3/../../../../pic32mx/lib\libpic32.a(vector19.o)
                              C:\Users\Booo_kat\AppData\Local\Temp\cc0xT7Bt.o (__vector_dispatch_19)
c:/program files/microchip/xc32/v2.40/bin/bin/../../lib/gcc/pic32mx/4.8.3/../../../../pic32mx/lib\libpic32.a(vector20.o)
                              C:\Users\Booo_kat\AppData\Local\Temp\cc0xT7Bt.o (__vector_dispatch_20)
c:/program files/microchip/xc32/v2.40/bin/bin/../../lib/gcc/pic32mx/4.8.3/../../../../pic32mx/lib\libpic32.a(vector21.o)
                              C:\Users\Booo_kat\AppData\Local\Temp\cc0xT7Bt.o (__vector_dispatch_21)
c:/program files/microchip/xc32/v2.40/bin/bin/../../lib/gcc/pic32mx/4.8.3/../../../../pic32mx/lib\libpic32.a(vector22.o)
                              C:\Users\Booo_kat\AppData\Local\Temp\cc0xT7Bt.o (__vector_dispatch_22)
c:/program files/microchip/xc32/v2.40/bin/bin/../../lib/gcc/pic32mx/4.8.3/../../../../pic32mx/lib\libpic32.a(vector23.o)
                              C:\Users\Booo_kat\AppData\Local\Temp\cc0xT7Bt.o (__vector_dispatch_23)
c:/program files/microchip/xc32/v2.40/bin/bin/../../lib/gcc/pic32mx/4.8.3/../../../../pic32mx/lib\libpic32.a(vector24.o)
                              C:\Users\Booo_kat\AppData\Local\Temp\cc0xT7Bt.o (__vector_dispatch_24)
c:/program files/microchip/xc32/v2.40/bin/bin/../../lib/gcc/pic32mx/4.8.3/../../../../pic32mx/lib\libpic32.a(vector25.o)
                              C:\Users\Booo_kat\AppData\Local\Temp\cc0xT7Bt.o (__vector_dispatch_25)
c:/program files/microchip/xc32/v2.40/bin/bin/../../lib/gcc/pic32mx/4.8.3/../../../../pic32mx/lib\libpic32.a(vector26.o)
                              C:\Users\Booo_kat\AppData\Local\Temp\cc0xT7Bt.o (__vector_dispatch_26)
c:/program files/microchip/xc32/v2.40/bin/bin/../../lib/gcc/pic32mx/4.8.3/../../../../pic32mx/lib\libpic32.a(vector27.o)
                              C:\Users\Booo_kat\AppData\Local\Temp\cc0xT7Bt.o (__vector_dispatch_27)
c:/program files/microchip/xc32/v2.40/bin/bin/../../lib/gcc/pic32mx/4.8.3/../../../../pic32mx/lib\libpic32.a(vector28.o)
                              C:\Users\Booo_kat\AppData\Local\Temp\cc0xT7Bt.o (__vector_dispatch_28)
c:/program files/microchip/xc32/v2.40/bin/bin/../../lib/gcc/pic32mx/4.8.3/../../../../pic32mx/lib\libpic32.a(vector29.o)
                              C:\Users\Booo_kat\AppData\Local\Temp\cc0xT7Bt.o (__vector_dispatch_29)
c:/program files/microchip/xc32/v2.40/bin/bin/../../lib/gcc/pic32mx/4.8.3/../../../../pic32mx/lib\libpic32.a(vector30.o)
                              C:\Users\Booo_kat\AppData\Local\Temp\cc0xT7Bt.o (__vector_dispatch_30)
c:/program files/microchip/xc32/v2.40/bin/bin/../../lib/gcc/pic32mx/4.8.3/../../../../pic32mx/lib\libpic32.a(vector31.o)
                              C:\Users\Booo_kat\AppData\Local\Temp\cc0xT7Bt.o (__vector_dispatch_31)
c:/program files/microchip/xc32/v2.40/bin/bin/../../lib/gcc/pic32mx/4.8.3/../../../../pic32mx/lib\libpic32.a(vector32.o)
                              C:\Users\Booo_kat\AppData\Local\Temp\cc0xT7Bt.o (__vector_dispatch_32)
c:/program files/microchip/xc32/v2.40/bin/bin/../../lib/gcc/pic32mx/4.8.3/../../../../pic32mx/lib\libpic32.a(vector33.o)
                              C:\Users\Booo_kat\AppData\Local\Temp\cc0xT7Bt.o (__vector_dispatch_33)
c:/program files/microchip/xc32/v2.40/bin/bin/../../lib/gcc/pic32mx/4.8.3/../../../../pic32mx/lib\libpic32.a(vector34.o)
                              C:\Users\Booo_kat\AppData\Local\Temp\cc0xT7Bt.o (__vector_dispatch_34)
c:/program files/microchip/xc32/v2.40/bin/bin/../../lib/gcc/pic32mx/4.8.3/../../../../pic32mx/lib\libpic32.a(vector35.o)
                              C:\Users\Booo_kat\AppData\Local\Temp\cc0xT7Bt.o (__vector_dispatch_35)
c:/program files/microchip/xc32/v2.40/bin/bin/../../lib/gcc/pic32mx/4.8.3/../../../../pic32mx/lib\libpic32.a(vector36.o)
                              C:\Users\Booo_kat\AppData\Local\Temp\cc0xT7Bt.o (__vector_dispatch_36)
c:/program files/microchip/xc32/v2.40/bin/bin/../../lib/gcc/pic32mx/4.8.3/../../../../pic32mx/lib\libpic32.a(vector37.o)
                              C:\Users\Booo_kat\AppData\Local\Temp\cc0xT7Bt.o (__vector_dispatch_37)
c:/program files/microchip/xc32/v2.40/bin/bin/../../lib/gcc/pic32mx/4.8.3/../../../../pic32mx/lib\libpic32.a(vector38.o)
                              C:\Users\Booo_kat\AppData\Local\Temp\cc0xT7Bt.o (__vector_dispatch_38)
c:/program files/microchip/xc32/v2.40/bin/bin/../../lib/gcc/pic32mx/4.8.3/../../../../pic32mx/lib\libpic32.a(vector39.o)
                              C:\Users\Booo_kat\AppData\Local\Temp\cc0xT7Bt.o (__vector_dispatch_39)
c:/program files/microchip/xc32/v2.40/bin/bin/../../lib/gcc/pic32mx/4.8.3/../../../../pic32mx/lib\libpic32.a(vector40.o)
                              C:\Users\Booo_kat\AppData\Local\Temp\cc0xT7Bt.o (__vector_dispatch_40)
c:/program files/microchip/xc32/v2.40/bin/bin/../../lib/gcc/pic32mx/4.8.3/../../../../pic32mx/lib\libpic32.a(vector41.o)
                              C:\Users\Booo_kat\AppData\Local\Temp\cc0xT7Bt.o (__vector_dispatch_41)
c:/program files/microchip/xc32/v2.40/bin/bin/../../lib/gcc/pic32mx/4.8.3/../../../../pic32mx/lib\libpic32.a(vector42.o)
                              C:\Users\Booo_kat\AppData\Local\Temp\cc0xT7Bt.o (__vector_dispatch_42)
c:/program files/microchip/xc32/v2.40/bin/bin/../../lib/gcc/pic32mx/4.8.3/../../../../pic32mx/lib\libpic32.a(vector43.o)
                              C:\Users\Booo_kat\AppData\Local\Temp\cc0xT7Bt.o (__vector_dispatch_43)
c:/program files/microchip/xc32/v2.40/bin/bin/../../lib/gcc/pic32mx/4.8.3/../../../../pic32mx/lib\libpic32.a(vector44.o)
                              C:\Users\Booo_kat\AppData\Local\Temp\cc0xT7Bt.o (__vector_dispatch_44)
c:/program files/microchip/xc32/v2.40/bin/bin/../../lib/gcc/pic32mx/4.8.3/../../../../pic32mx/lib\libpic32.a(vector46.o)
                              C:\Users\Booo_kat\AppData\Local\Temp\cc0xT7Bt.o (__vector_dispatch_46)
c:/program files/microchip/xc32/v2.40/bin/bin/../../lib/gcc/pic32mx/4.8.3/../../../../pic32mx/lib\libpic32.a(vector47.o)
                              C:\Users\Booo_kat\AppData\Local\Temp\cc0xT7Bt.o (__vector_dispatch_47)
c:/program files/microchip/xc32/v2.40/bin/bin/../../lib/gcc/pic32mx/4.8.3/../../../../pic32mx/lib\libpic32.a(vector48.o)
                              C:\Users\Booo_kat\AppData\Local\Temp\cc0xT7Bt.o (__vector_dispatch_48)
c:/program files/microchip/xc32/v2.40/bin/bin/../../lib/gcc/pic32mx/4.8.3/../../../../pic32mx/lib\libpic32.a(vector49.o)
                              C:\Users\Booo_kat\AppData\Local\Temp\cc0xT7Bt.o (__vector_dispatch_49)
c:/program files/microchip/xc32/v2.40/bin/bin/../../lib/gcc/pic32mx/4.8.3/../../../../pic32mx/lib\libpic32.a(vector50.o)
                              C:\Users\Booo_kat\AppData\Local\Temp\cc0xT7Bt.o (__vector_dispatch_50)
c:/program files/microchip/xc32/v2.40/bin/bin/../../lib/gcc/pic32mx/4.8.3/../../../../pic32mx/lib\libpic32.a(vector51.o)
                              C:\Users\Booo_kat\AppData\Local\Temp\cc0xT7Bt.o (__vector_dispatch_51)
c:/program files/microchip/xc32/v2.40/bin/bin/../../lib/gcc/pic32mx/4.8.3/../../../../pic32mx/lib\libpic32.a(defaultinterrupt.o)
                              c:/program files/microchip/xc32/v2.40/bin/bin/../../lib/gcc/pic32mx/4.8.3/../../../../pic32mx/lib\libpic32.a(vector0.o) (_DefaultInterrupt)
c:/program files/microchip/xc32/v2.40/bin/bin/../../lib/gcc/pic32mx/4.8.3/../../../../pic32mx/lib\libc.a(malloc.o)
                              build/default/production/_ext/1699675045/usb_host.o (malloc)
c:/program files/microchip/xc32/v2.40/bin/bin/../../lib/gcc/pic32mx/4.8.3/../../../../pic32mx/lib\libc.a(strncmp.o)
                              build/default/production/_ext/2105109636/sys_fs.o (strncmp)
c:/program files/microchip/xc32/v2.40/bin/bin/../../lib/gcc/pic32mx/4.8.3/../../../../pic32mx/lib\libc.a(strncpy.o)
                              build/default/production/_ext/2105109636/sys_fs.o (strncpy)
c:/program files/microchip/xc32/v2.40/bin/bin/../../lib/gcc/pic32mx/4.8.3/../../../../pic32mx/lib\libc.a(printf_s.eo)
                              build/default/production/_ext/1360937237/app.o (_printf_0)
c:/program files/microchip/xc32/v2.40/bin/bin/../../lib/gcc/pic32mx/4.8.3/../../../../pic32mx/lib\libc.a(_iob.o)
                              c:/program files/microchip/xc32/v2.40/bin/bin/../../lib/gcc/pic32mx/4.8.3/../../../../pic32mx/lib\libc.a(printf_s.eo) (_iob)
c:/program files/microchip/xc32/v2.40/bin/bin/../../lib/gcc/pic32mx/4.8.3/../../../../pic32mx/lib\libc.a(doprnt_s.eo)
                              c:/program files/microchip/xc32/v2.40/bin/bin/../../lib/gcc/pic32mx/4.8.3/../../../../pic32mx/lib\libc.a(printf_s.eo) (_vfprintf_s)
c:/program files/microchip/xc32/v2.40/bin/bin/../../lib/gcc/pic32mx/4.8.3/../../../../pic32mx/lib\libc.a(_fputc_simple.o)
                              c:/program files/microchip/xc32/v2.40/bin/bin/../../lib/gcc/pic32mx/4.8.3/../../../../pic32mx/lib\libc.a(doprnt_s.eo) (fputc)
c:/program files/microchip/xc32/v2.40/bin/bin/../../lib/gcc/pic32mx/4.8.3/../../../../pic32mx/lib\libc.a(ctype.o)
                              c:/program files/microchip/xc32/v2.40/bin/bin/../../lib/gcc/pic32mx/4.8.3/../../../../pic32mx/lib\libc.a(doprnt_s.eo) (_ctype)
c:/program files/microchip/xc32/v2.40/bin/bin/../../lib/gcc/pic32mx/4.8.3/../../../../pic32mx/lib\libc.a(_flsbuf_simple.o)
                              c:/program files/microchip/xc32/v2.40/bin/bin/../../lib/gcc/pic32mx/4.8.3/../../../../pic32mx/lib\libc.a(_fputc_simple.o) (_flsbuf)
c:/program files/microchip/xc32/v2.40/bin/bin/../../lib/gcc/pic32mx/4.8.3\libgcc.a(_umoddi3.o)
                              c:/program files/microchip/xc32/v2.40/bin/bin/../../lib/gcc/pic32mx/4.8.3/../../../../pic32mx/lib\libc.a(doprnt_s.eo) (__umoddi3)
c:/program files/microchip/xc32/v2.40/bin/bin/../../lib/gcc/pic32mx/4.8.3/../../../../pic32mx/lib\libpic32.a(sbrk.o)
                              c:/program files/microchip/xc32/v2.40/bin/bin/../../lib/gcc/pic32mx/4.8.3/../../../../pic32mx/lib\libc.a(malloc.o) (sbrk)
c:/program files/microchip/xc32/v2.40/bin/bin/../../lib/gcc/pic32mx/4.8.3/../../../../pic32mx/lib\libpic32.a(write.o)
                              c:/program files/microchip/xc32/v2.40/bin/bin/../../lib/gcc/pic32mx/4.8.3/../../../../pic32mx/lib\libc.a(_fputc_simple.o) (write)
c:/program files/microchip/xc32/v2.40/bin/bin/../../lib/gcc/pic32mx/4.8.3/../../../../pic32mx/lib\libpic32.a(errno.o)
                              c:/program files/microchip/xc32/v2.40/bin/bin/../../lib/gcc/pic32mx/4.8.3/../../../../pic32mx/lib\libpic32.a(sbrk.o) (errno)
c:/program files/microchip/xc32/v2.40/bin/bin/../../lib/gcc/pic32mx/4.8.3/../../../../pic32mx/lib\libpic32.a(_mon_putc.o)
                              c:/program files/microchip/xc32/v2.40/bin/bin/../../lib/gcc/pic32mx/4.8.3/../../../../pic32mx/lib\libpic32.a(write.o) (_mon_putc)
c:/program files/microchip/xc32/v2.40/bin/bin/../../lib/gcc/pic32mx/4.8.3/../../../../pic32mx/lib\libpic32.a(xc32_uart.o)
                              c:/program files/microchip/xc32/v2.40/bin/bin/../../lib/gcc/pic32mx/4.8.3/../../../../pic32mx/lib\libpic32.a(_mon_putc.o) (__XC_UART)

Allocating common symbols
Common symbol       size              file

gSYSFSObj           0x8               build/default/production/_ext/2105109636/sys_fs.o
endPointTable       0x20              build/default/production/_ext/1688732426/system_init.o
handle20ms          0x4               build/default/production/_ext/1360937237/app.o
appData             0x414             build/default/production/_ext/1360937237/app.o
gSysFsMutex         0x1               build/default/production/_ext/2105109636/sys_fs.o
sysObj              0x10              build/default/production/_ext/1688732426/system_init.o
gSYSFSFileObj       0x110             build/default/production/_ext/2105109636/sys_fs.o
gUSBHostSCSIAttachListener
                    0x0               build/default/production/_ext/1699675045/usb_host_scsi.o
gSYSFSDirObj        0x10              build/default/production/_ext/2105109636/sys_fs.o
gSYSFSMountPoint    0x14              build/default/production/_ext/2105109636/sys_fs.o
handle30ms          0x4               build/default/production/_ext/1360937237/app.o
gDrvUSBHostPipeObj  0x1b8             build/default/production/_ext/1150371026/drv_usbfs_host.o
gDrvUSBGroup        0x114             build/default/production/_ext/1150371026/drv_usbfs.o
sysDevconObj        0x8               build/default/production/_ext/340578644/sys_devcon.o
gSYSFSMediaObject   0x2c              build/default/production/_ext/2105109636/sys_fs_media_manager.o
gUSBHostSCSIObj     0xe0              build/default/production/_ext/1699675045/usb_host_scsi.o
gSYSFSCurrentMountPoint
                    0x8               build/default/production/_ext/2105109636/sys_fs.o
errorValue          0x4               build/default/production/_ext/2105109636/sys_fs.o
gSYSFSVolumeObject  0x1c              build/default/production/_ext/2105109636/sys_fs_media_manager.o
VolToPart           0x2               build/default/production/_ext/2105109636/sys_fs_media_manager.o
gUSBHostMSDInstance
                    0x74              build/default/production/_ext/1699675045/usb_host_msd.o

Microchip PIC32 Memory-Usage Report

kseg0 Program-Memory Usage
section                    address  length [bytes]      (dec)  Description
-------                 ----------  -------------------------  -----------
.text._USB_HOST_MakeDev 0x9d000000          0xa9c        2716   
.text.f_mkfs            0x9d000a9c          0x9b8        2488   
.text._vfprintf_s       0x9d001454          0x860        2144   
.text.SYS_FS_MEDIA_MANA 0x9d001cb4          0x770        1904   
.text.follow_path       0x9d002424          0x704        1796   
.text._DRV_USBFS_HOST_C 0x9d002b28          0x61c        1564   
.text.find_volume       0x9d003144          0x5b8        1464   
.text._USB_HOST_SCSI_Ta 0x9d0036fc          0x5a0        1440   
.text._USB_HOST_UpdateC 0x9d003c9c          0x568        1384   
.text.f_printf          0x9d004204          0x518        1304   
.text._DRV_USBFS_HOST_T 0x9d00471c          0x498        1176   
.text.dir_register      0x9d004bb4          0x480        1152   
.text                   0x9d005034          0x8bc        2236  App's exec code 
.text.f_setlabel        0x9d0058f0          0x39c         924   
.text._DRV_USBFS_HOST_T 0x9d005c8c          0x374         884   
.text.USB_HOST_MSD_Tran 0x9d006000          0x360         864   
.text.f_open            0x9d006360          0x340         832   
.text.f_write           0x9d0066a0          0x334         820   
.dinit                  0x9d0069d4          0x330         816   
.text.SYS_TMR_Tasks     0x9d006d04          0x308         776   
.text._USB_HOST_UpdateI 0x9d00700c          0x308         776   
.text.dir_find          0x9d007314          0x2f8         760   
.text.f_mkdir           0x9d00760c          0x2f4         756   
.text.USB_HOST_SCSI_Tra 0x9d007900          0x2e4         740   
.text._USB_HOST_MSD_Tra 0x9d007be4          0x2e0         736   
.text.f_read            0x9d007ec4          0x2d8         728   
.text.DRV_USBFS_HOST_Pi 0x9d00819c          0x2d8         728   
.text.f_lseek           0x9d008474          0x2d4         724   
.text.SYS_FS_FileOpen   0x9d008748          0x2b8         696   
.text.SYS_FS_MEDIA_MANA 0x9d008a00          0x2b8         696   
.text._USB_HOST_UpdateD 0x9d008cb8          0x290         656   
.text.malloc            0x9d008f48          0x28c         652   
.text.f_getcwd          0x9d0091d4          0x27c         636   
.text.f_fdisk           0x9d009450          0x250         592   
.text._DRV_USBFS_HOST_N 0x9d0096a0          0x248         584   
.text.dir_read          0x9d0098e8          0x238         568   
.text.SYS_FS_Mount      0x9d009b20          0x234         564   
.text.USB_HOST_Tasks    0x9d009d54          0x220         544   
.text._USB_HOST_MSD_Int 0x9d009f74          0x210         528   
.text.USB_HOST_DevicePi 0x9d00a184          0x20c         524   
.text.USB_HOST_DeviceTr 0x9d00a390          0x204         516   
.text.f_rename          0x9d00a594          0x200         512   
.text.get_fileinfo      0x9d00a794          0x1fc         508   
.text.USB_HOST_DeviceEn 0x9d00a990          0x1fc         508   
.text.dir_next          0x9d00ab8c          0x1ec         492   
.text._USB_HOST_DeviceC 0x9d00ad78          0x1e4         484   
.text.DRV_USBFS_HOST_Pi 0x9d00af5c          0x1d8         472   
.text._USB_HOST_SCSI_De 0x9d00b134          0x1d0         464   
.text.put_fat           0x9d00b304          0x1c8         456   
.text.f_getfree         0x9d00b4cc          0x1c4         452   
.text.USB_HOST_MSD_Tran 0x9d00b690          0x1c0         448   
.text.DRV_TMR_Initializ 0x9d00b850          0x1a4         420   
.text.create_chain      0x9d00b9f4          0x1a4         420   
.text._USB_HOST_SCSI_Tr 0x9d00bb98          0x198         408   
.text.APP_Tasks         0x9d00bd30          0x194         404   
.text._sbrk_init        0x9d00bec4          0x194         404   
.text.get_fat           0x9d00c058          0x18c         396   
.text._SYS_TMR_ClientCr 0x9d00c1e4          0x18c         396   
.text._USB_HOST_MSD_Int 0x9d00c370          0x18c         396   
.text._DRV_USBFS_HOST_T 0x9d00c4fc          0x188         392   
.text.f_unlink          0x9d00c684          0x184         388   
.text.f_opendir         0x9d00c808          0x17c         380   
.text._USB_HOST_DeviceC 0x9d00c984          0x174         372   
.text.USB_HOST_DeviceEn 0x9d00caf8          0x174         372   
.text.DRV_USBFS_HOST_IR 0x9d00cc6c          0x16c         364   
.text.SYS_FS_GetDisk    0x9d00cdd8          0x168         360   
.text                   0x9d00cf40          0x2d0         720  App's exec code 
.text.USB_HOST_DeviceDe 0x9d00d210          0x164         356   
.text.f_truncate        0x9d00d374          0x160         352   
.text._USB_HOST_Configu 0x9d00d4d4          0x15c         348   
.text.USB_HOST_DeviceIn 0x9d00d630          0x154         340   
.text.USB_HOST_DevicePi 0x9d00d784          0x154         340   
.text.dir_sdi           0x9d00d8d8          0x150         336   
.text.USB_HOST_DeviceCo 0x9d00da28          0x150         336   
.text.USB_HOST_DeviceGe 0x9d00db78          0x150         336   
.text.fputc             0x9d00dcc8          0x144         324   
.text.f_sync            0x9d00de0c          0x140         320   
.text.DRV_USBFS_Initial 0x9d00df4c          0x13c         316   
.text._DRV_USBFS_HOST_I 0x9d00e088          0x13c         316   
.text.SYS_Initialize    0x9d00e1c4          0x13c         316   
.text.SYS_FS_Unmount    0x9d00e300          0x138         312   
.text.f_getlabel        0x9d00e438          0x138         312   
.text.IntHandlerDrvTmrI 0x9d00e570          0x134         308   
.text._IntHandler_USB_s 0x9d00e6a4          0x134         308   
.text.DRV_TMR_AlarmRegi 0x9d00e7d8          0x12c         300   
.text._flsbuf           0x9d00e904          0x12c         300   
.rodata                 0x9d00ea30          0x248         584  Read-only const 
.text                   0x9d00ec78          0x120         288  App's exec code 
.text.sync_fs           0x9d00ed98          0x11c         284   
.text.USB_HOST_Initiali 0x9d00eeb4          0x11c         284   
.text.DRV_USBFS_HOST_IR 0x9d00efd0          0x10c         268   
.rodata                 0x9d00f0dc          0x104         260  Read-only const 
.text._DRV_TMR_ClockSou 0x9d00f1e0           0xf4         244   
.text.f_mount           0x9d00f2d4           0xf4         244   
.text._DRV_USBFS_HOST_N 0x9d00f3c8           0xf4         244   
.text._DRV_USBFS_HOST_C 0x9d00f4bc           0xf4         244   
.text._SYS_TMR_ClientPa 0x9d00f5b0           0xe8         232   
.text.f_unmount         0x9d00f698           0xe0         224   
.text.SYS_DEVCON_Perfor 0x9d00f778           0xe0         224   
.text.remove_chain      0x9d00f858           0xdc         220   
.text._DRV_USBFS_HOST_C 0x9d00f934           0xdc         220   
.text.general_exception 0x9d00fa10           0xdc         220   
.text.DRV_TMR_CounterFr 0x9d00faec           0xd8         216   
.text._mon_putc         0x9d00fbc4           0xd8         216   
.text.check_fs          0x9d00fc9c           0xd4         212   
.text._USB_HOST_MSD_Ins 0x9d00fd70           0xd4         212   
.text.SYS_FS_FileWrite  0x9d00fe44           0xd0         208   
.text.f_readdir         0x9d00ff14           0xd0         208   
.rodata                 0x9d00ffe4           0xd0         208  Read-only const 
.text.DRV_TMR_Tasks     0x9d0100b4           0xcc         204   
.text.sync_window       0x9d010180           0xcc         204   
.text.f_chmod           0x9d01024c           0xcc         204   
.text.f_utime           0x9d010318           0xcc         204   
.text.dir_remove        0x9d0103e4           0xcc         204   
.text._DRV_USBFS_HOST_C 0x9d0104b0           0xcc         204   
.text._DRV_TMR_ClockPre 0x9d01057c           0xc8         200   
.text.SYS_FS_FileClose  0x9d010644           0xc8         200   
.text._USB_HOST_FindCla 0x9d01070c           0xc8         200   
.text.DRV_USBFS_HOST_RO 0x9d0107d4           0xc8         200   
.text._sbrk             0x9d01089c           0xc8         200   
.text.SYS_TMR_Initializ 0x9d010964           0xc0         192   
.rodata                 0x9d010a28           0xc0         192  Read-only const 
.text.f_chdir           0x9d010ae8           0xb8         184   
.text.SYS_FS_MEDIA_MANA 0x9d010ba0           0xb4         180   
.text.dir_alloc         0x9d010c54           0xb4         180   
.text.SYS_PORTS_Initial 0x9d010d08           0xb0         176   
.text.inc_lock          0x9d010db8           0xac         172   
.text.f_gets            0x9d010e64           0xac         172   
.rodata                 0x9d010f10           0xac         172  Read-only const 
.text                   0x9d010fbc           0xa8         168  App's exec code 
.text.get_ldnumber      0x9d011064           0xa4         164   
.text.USB_HOST_DeviceIA 0x9d011108           0xa4         164   
.text.SYS_FS_MEDIA_MANA 0x9d0111ac           0x9c         156   
.text.USB_HOST_SCSI_Dei 0x9d011248           0x9c         156   
.text.write             0x9d0112e4           0x9c         156   
.text._SYS_FS_MEDIA_MAN 0x9d011380           0x98         152   
.text.f_puts            0x9d011418           0x98         152   
.text._USB_HOST_SCSI_Bl 0x9d0114b0           0x98         152   
.text                   0x9d011548           0x98         152  App's exec code 
.text.chk_lock          0x9d0115e0           0x94         148   
.text.f_stat            0x9d011674           0x94         148   
.text.SYS_FS_Initialize 0x9d011708           0x90         144   
.text.SYS_FS_MEDIA_MANA 0x9d011798           0x90         144   
.text.USB_HOST_DevicePi 0x9d011828           0x8c         140   
.text.DRV_USBFS_Tasks_I 0x9d0118b4           0x88         136   
.text._USB_HOST_DataTra 0x9d01193c           0x88         136   
.text._USB_HOST_UpdateD 0x9d0119c4           0x88         136   
.text._DRV_TMR_ModuleOb 0x9d011a4c           0x84         132   
.text                   0x9d011ad0           0x84         132  App's exec code 
.text.putc_bfd          0x9d011b54           0x80         128   
.text.disk_write        0x9d011bd4           0x80         128   
.text._USB_HOST_Release 0x9d011c54           0x80         128   
.text.USB_HOST_DeviceIn 0x9d011cd4           0x80         128   
.text.USB_HOST_SCSI_Ini 0x9d011d54           0x80         128   
.text.move_window       0x9d011dd4           0x7c         124   
.text.f_putc            0x9d011e50           0x7c         124   
.text.f_getclusters     0x9d011ecc           0x78         120   
.text.disk_ioctl        0x9d011f44           0x78         120   
.text.SYS_FS_MEDIA_MANA 0x9d011fbc           0x74         116   
.text.validate          0x9d012030           0x74         116   
.text.f_closedir        0x9d0120a4           0x74         116   
.text.disk_read         0x9d012118           0x74         116   
.text._USB_HOST_FreeAdd 0x9d01218c           0x74         116   
.text.strncpy           0x9d012200           0x74         116   
.text._DRV_TMR_Resume   0x9d012274           0x70         112   
.text.strncmp           0x9d0122e4           0x70         112   
.text.DRV_USBFS_ClientE 0x9d012354           0x6c         108   
.text.DRV_USBFS_HOST_RO 0x9d0123c0           0x6c         108   
.text._USB_HOST_MSD_Int 0x9d01242c           0x6c         108   
.text.DRV_TMR_Start     0x9d012498           0x64         100   
.text.dec_lock          0x9d0124fc           0x64         100   
.text.SYS_FS_MEDIA_MANA 0x9d012560           0x60          96   
.text._USB_HOST_FindEnd 0x9d0125c0           0x60          96   
.text.DRV_USBFS_HOST_Ev 0x9d012620           0x60          96   
.text.DRV_TMR_AlarmEnab 0x9d012680           0x5c          92   
.text.SYS_FS_MEDIA_MANA 0x9d0126dc           0x5c          92   
.text._USB_HOST_NoInter 0x9d012738           0x5c          92   
.text.DRV_TMR_Open      0x9d012794           0x58          88   
.text.SYS_DEVCON_System 0x9d0127ec           0x58          88   
.text.f_close           0x9d012844           0x54          84   
.text.SYS_INT_SourceDis 0x9d012898           0x54          84   
.text.main_entry        0x9d0128ec           0x54          84   
.text._DRV_TMR_Suspend  0x9d012940           0x50          80   
.text.sbrk              0x9d012990           0x50          80   
.text._USB_HOST_IRPResu 0x9d0129e0           0x4c          76   
.text.USB_HOST_DeviceCo 0x9d012a2c           0x4c          76   
.text.DRV_TMR_Close     0x9d012a78           0x48          72   
.text.SYS_FS_MEDIA_MANA 0x9d012ac0           0x48          72   
.text.SYS_CLK_Secondary 0x9d012b08           0x48          72   
.text.SYS_DEVCON_System 0x9d012b50           0x48          72   
.text.SYS_Tasks         0x9d012b98           0x48          72   
.text._bootstrap_except 0x9d012be0           0x48          72   
.vector_default         0x9d012c28           0x48          72   
.text.DRV_USBFS_Open    0x9d012c70           0x44          68   
.text.USB_HOST_SCSI_Med 0x9d012cb4           0x44          68   
.text.SYS_CLK_Initializ 0x9d012cf8           0x44          68   
.text                   0x9d012d3c           0x44          68  App's exec code 
.rodata                 0x9d012d80           0x40          64  Read-only const 
.text.ld_clust          0x9d012dc0           0x40          64   
.text._USB_HOST_MSD_Hos 0x9d012e00           0x40          64   
.text._general_exceptio 0x9d012e40           0x40          64   
.text._printf_s         0x9d012e80           0x40          64   
.text._USB_HOST_MSD_Ini 0x9d012ec0           0x3c          60   
.text.USB_HOST_SCSI_Ope 0x9d012efc           0x3c          60   
.text.Test_Callback     0x9d012f38           0x38          56   
.text.SYS_FS_MEDIA_MANA 0x9d012f70           0x38          56   
.text._USB_HOST_RootHub 0x9d012fa8           0x38          56   
.text.SYS_FS_MEDIA_MANA 0x9d012fe0           0x34          52   
.text.APP_SYSFSEventHan 0x9d013014           0x30          48   
.rodata                 0x9d013044           0x30          48  Read-only const 
.text.sum_sfn           0x9d013074           0x30          48   
.text.clust2sect        0x9d0130a4           0x30          48   
.text._USB_HOST_RootHub 0x9d0130d4           0x30          48   
.text._USB_HOST_GetNewA 0x9d013104           0x30          48   
.text.DRV_USBFS_HOST_Ev 0x9d013134           0x30          48   
.text.USB_HOST_SCSI_Med 0x9d013164           0x30          48   
.text._USB_HOST_SCSI_Re 0x9d013194           0x30          48   
.text.free              0x9d0131c4           0x30          48   
.text._SYS_TMR_AlarmCal 0x9d0131f4           0x2c          44   
.text.DRV_USBFS_Close   0x9d013220           0x2c          44   
.text.DRV_USBFS_HOST_RO 0x9d01324c           0x2c          44   
.text.DRV_USBFS_HOST_RO 0x9d013278           0x2c          44   
.text._USB_HOST_MSD_Int 0x9d0132a4           0x2c          44   
.text.USB_HOST_SCSI_Eve 0x9d0132d0           0x2c          44   
.text.USB_HOST_SCSI_Sec 0x9d0132fc           0x2c          44   
.text._USB_HOST_SCSI_Mo 0x9d013328           0x2c          44   
.text._USB_HOST_SCSI_LU 0x9d013354           0x2c          44   
.text.USB_HOST_SCSI_Tas 0x9d013380           0x2c          44   
.text._stub_sbd_memlayo 0x9d0133ac           0x2c          44   
.text.diskEventHandler  0x9d0133d8           0x28          40   
.text.USB_HOST_SCSI_Sec 0x9d013400           0x28          40   
.text.BSP_USBVBUSPowerE 0x9d013428           0x28          40   
.text.mem_cpy           0x9d013450           0x24          36   
.text.ff_wtoupper       0x9d013474           0x24          36   
.text.disk_initialize   0x9d013498           0x24          36   
.text.DRV_USBFS_HOST_RO 0x9d0134bc           0x24          36   
.text.DRV_USBFS_HOST_RO 0x9d0134e0           0x24          36   
.text.DRV_USBFS_HOST_RO 0x9d013504           0x24          36   
.text.DRV_USBFS_HOST_RO 0x9d013528           0x24          36   
.text._USB_HOST_SCSI_Re 0x9d01354c           0x24          36   
.text._USB_HOST_SCSI_In 0x9d013570           0x24          36   
.text.main              0x9d013594           0x20          32   
.text.SYS_INT_Disable   0x9d0135b4           0x20          32   
.rodata                 0x9d0135d4           0x1c          28  Read-only const 
.text.SYS_FS_Tasks      0x9d0135f0           0x1c          28   
.text.SYS_FS_EventHandl 0x9d01360c           0x1c          28   
.text.mem_set           0x9d013628           0x1c          28   
.text.clear_lock        0x9d013644           0x1c          28   
.text.get_fattime       0x9d013660           0x1c          28   
.text.SYS_INT_StatusGet 0x9d01367c           0x1c          28   
.text.SYS_INT_StatusRes 0x9d013698           0x1c          28   
.text.SYS_TMR_CallbackP 0x9d0136b4           0x1c          28   
.text.SYS_TMR_CallbackS 0x9d0136d0           0x1c          28   
.text.DRV_USBFS_HOST_RO 0x9d0136ec           0x1c          28   
.text._USB_HOST_MSD_Int 0x9d013708           0x1c          28   
.text._USB_HOST_SCSI_Co 0x9d013724           0x1c          28   
.text._USB_HOST_SCSI_Te 0x9d013740           0x1c          28   
.text.SYS_FS_MEDIA_MANA 0x9d01375c           0x18          24   
.text.f_chdrive         0x9d013774           0x18          24   
.text._USB_HOST_MSD_Con 0x9d01378c           0x18          24   
.text.SYS_DEVCON_JTAGEn 0x9d0137a4           0x18          24   
.text                   0x9d0137bc           0x18          24  App's exec code 
.text.APP_Initialize    0x9d0137d4           0x14          20   
.text.f_eof             0x9d0137e8           0x14          20   
.text.SYS_INT_Initializ 0x9d0137fc           0x14          20   
.text.SYS_DEVCON_Initia 0x9d013810           0x14          20   
.text.BSP_Initialize    0x9d013824           0x14          20   
.text.USB_HOST_DeviceEn 0x9d013838           0x10          16   
.text.SYS_FS_MEDIA_MANA 0x9d013848            0xc          12   
.text.f_error           0x9d013854            0xc          12   
.text._USB_HOST_TimerCa 0x9d013860            0xc          12   
.text._USB_HOST_SCSI_Ti 0x9d01386c            0xc          12   
.text.SYS_CLK_SystemFre 0x9d013878            0xc          12   
.text.SYS_CLK_Periphera 0x9d013884            0xc          12   
.rodata                 0x9d013890            0x8           8  Read-only const 
.text.f_tell            0x9d013898            0x8           8   
.text.f_size            0x9d0138a0            0x8           8   
.text.disk_status       0x9d0138a8            0x8           8   
.text.DRV_USBFS_Tasks   0x9d0138b0            0x8           8   
.text.DRV_USBFS_HOST_RO 0x9d0138b8            0x8           8   
.text.DRV_USBFS_HOST_RO 0x9d0138c0            0x8           8   
.text._USB_HOST_MSD_Dei 0x9d0138c8            0x8           8   
.text._USB_HOST_MSD_Rei 0x9d0138d0            0x8           8   
.text.USB_HOST_SCSI_Clo 0x9d0138d8            0x8           8   
.text.BSP_USBVBUSSwitch 0x9d0138e0            0x8           8   
.text._on_reset         0x9d0138e8            0x8           8   
.text._on_bootstrap     0x9d0138f0            0x8           8   
      Total kseg0_program_mem used  :     0x138f4       80116  15.3% of 0x80000

kseg0 Boot-Memory Usage
section                    address  length [bytes]      (dec)  Description
-------                 ----------  -------------------------  -----------
         Total kseg0_boot_mem used  :           0           0  <1% of 0x970

Exception-Memory Usage 
section                    address  length [bytes]      (dec)  Description
-------                 ----------  -------------------------  -----------
.app_excpt              0x9fc01180           0x10          16  General-Exception 
.vector_0               0x9fc01200            0x8           8  Interrupt Vector 0 
.vector_1               0x9fc01220            0x8           8  Interrupt Vector 1 
.vector_2               0x9fc01240            0x8           8  Interrupt Vector 2 
.vector_3               0x9fc01260            0x8           8  Interrupt Vector 3 
.vector_4               0x9fc01280            0x8           8  Interrupt Vector 4 
.vector_5               0x9fc012a0            0x8           8  Interrupt Vector 5 
.vector_6               0x9fc012c0            0x8           8  Interrupt Vector 6 
.vector_7               0x9fc012e0            0x8           8  Interrupt Vector 7 
.vector_8               0x9fc01300            0x8           8  Interrupt Vector 8 
.vector_9               0x9fc01320            0x8           8  Interrupt Vector 9 
.vector_10              0x9fc01340            0x8           8  Interrupt Vector 10 
.vector_11              0x9fc01360            0x8           8  Interrupt Vector 11 
.vector_12              0x9fc01380            0x8           8  Interrupt Vector 12 
.vector_13              0x9fc013a0            0x8           8  Interrupt Vector 13 
.vector_14              0x9fc013c0            0x8           8  Interrupt Vector 14 
.vector_15              0x9fc013e0            0x8           8  Interrupt Vector 15 
.vector_16              0x9fc01400            0x8           8  Interrupt Vector 16 
.vector_17              0x9fc01420            0x8           8  Interrupt Vector 17 
.vector_18              0x9fc01440            0x8           8  Interrupt Vector 18 
.vector_19              0x9fc01460            0x8           8  Interrupt Vector 19 
.vector_20              0x9fc01480            0x8           8  Interrupt Vector 20 
.vector_21              0x9fc014a0            0x8           8  Interrupt Vector 21 
.vector_22              0x9fc014c0            0x8           8  Interrupt Vector 22 
.vector_23              0x9fc014e0            0x8           8  Interrupt Vector 23 
.vector_24              0x9fc01500            0x8           8  Interrupt Vector 24 
.vector_25              0x9fc01520            0x8           8  Interrupt Vector 25 
.vector_26              0x9fc01540            0x8           8  Interrupt Vector 26 
.vector_27              0x9fc01560            0x8           8  Interrupt Vector 27 
.vector_28              0x9fc01580            0x8           8  Interrupt Vector 28 
.vector_29              0x9fc015a0            0x8           8  Interrupt Vector 29 
.vector_30              0x9fc015c0            0x8           8  Interrupt Vector 30 
.vector_31              0x9fc015e0            0x8           8  Interrupt Vector 31 
.vector_32              0x9fc01600            0x8           8  Interrupt Vector 32 
.vector_33              0x9fc01620            0x8           8  Interrupt Vector 33 
.vector_34              0x9fc01640            0x8           8  Interrupt Vector 34 
.vector_35              0x9fc01660            0x8           8  Interrupt Vector 35 
.vector_36              0x9fc01680            0x8           8  Interrupt Vector 36 
.vector_37              0x9fc016a0            0x8           8  Interrupt Vector 37 
.vector_38              0x9fc016c0            0x8           8  Interrupt Vector 38 
.vector_39              0x9fc016e0            0x8           8  Interrupt Vector 39 
.vector_40              0x9fc01700            0x8           8  Interrupt Vector 40 
.vector_41              0x9fc01720            0x8           8  Interrupt Vector 41 
.vector_42              0x9fc01740            0x8           8  Interrupt Vector 42 
.vector_43              0x9fc01760            0x8           8  Interrupt Vector 43 
.vector_44              0x9fc01780            0x8           8  Interrupt Vector 44 
.vector_45              0x9fc017a0            0x8           8  Interrupt Vector 45 
.vector_46              0x9fc017c0            0x8           8  Interrupt Vector 46 
.vector_47              0x9fc017e0            0x8           8  Interrupt Vector 47 
.vector_48              0x9fc01800            0x8           8  Interrupt Vector 48 
.vector_49              0x9fc01820            0x8           8  Interrupt Vector 49 
.vector_50              0x9fc01840            0x8           8  Interrupt Vector 50 
.vector_51              0x9fc01860            0x8           8  Interrupt Vector 51 
          Total exception_mem used  :       0x1b0         432  10.5% of 0x1000

kseg1 Boot-Memory Usage
section                    address  length [bytes]      (dec)  Description
-------                 ----------  -------------------------  -----------
.reset                  0xbfc00000          0x19c         412  Reset handler 
.bev_excpt              0xbfc00380           0x10          16  BEV-Exception 
         Total kseg1_boot_mem used  :       0x1ac         428  36.6% of 0x490
        --------------------------------------------------------------------------
         Total Program Memory used  :     0x13c50       80976  15.2% of 0x81e00
        --------------------------------------------------------------------------


kseg1 Data-Memory Usage
section                    address  length [bytes]      (dec)  Description
-------                 ----------  -------------------------  -----------
.sdata                  0xa0000000            0xc          12  Small init data 
.sbss                   0xa000000c           0x50          80  Small uninit data 
.data                   0xa000005c           0xa4         164  Initialized data 
.bss                    0xa0000100           0x90         144  Uninitialized data 
.data                   0xa0000190           0x50          80  Initialized data 
.bss                    0xa00001e0           0x20          32  Uninitialized data 
.bss                    0xa0000200          0xa30        2608  Uninitialized data 
.COHERENTBSS$           0xa0000c30          0x9c0        2496   
.bss                    0xa00015f0          0x948        2376  Uninitialized data 
.bss                    0xa0001f38           0x80         128  Uninitialized data 
.data                   0xa0001fb8           0x5c          92  Initialized data 
.data                   0xa0002014           0x2c          44  Initialized data 
.bss                    0xa0002040           0x24          36  Uninitialized data 
.bss.errno              0xa0002064            0x4           4   
         Total kseg1_data_mem used  :      0x2068        8296  6.3% of 0x20000
        --------------------------------------------------------------------------
            Total Data Memory used  :      0x2068        8296  6.3% of 0x20000
        --------------------------------------------------------------------------


Dynamic Data-Memory Reservation
section                    address  length [bytes]      (dec)  Description
-------                 ----------  -------------------------  -----------
heap                    0xa0002070          0x1f0         496  Reserved for heap 
stack                   0xa0002278        0x1dd80      122240  Reserved for stack 

        --------------------------------------------------------------------------

Discarded input sections

 .text          0x00000000        0x0 c:/program files/microchip/xc32/v2.40/bin/bin/../../lib/gcc/pic32mx/4.8.3/../../../../pic32mx/lib\debug-exception-return.o
 .data          0x00000000        0x0 c:/program files/microchip/xc32/v2.40/bin/bin/../../lib/gcc/pic32mx/4.8.3/../../../../pic32mx/lib\debug-exception-return.o
 .bss           0x00000000        0x0 c:/program files/microchip/xc32/v2.40/bin/bin/../../lib/gcc/pic32mx/4.8.3/../../../../pic32mx/lib\debug-exception-return.o
 .text          0x00000000        0x0 build/default/production/_ext/1360937237/app.o
 .data          0x00000000        0x0 build/default/production/_ext/1360937237/app.o
 .bss           0x00000000        0x0 build/default/production/_ext/1360937237/app.o
 .reginfo       0x00000000       0x18 build/default/production/_ext/1360937237/app.o
 .text          0x00000000        0x0 build/default/production/_ext/1360937237/main.o
 .data          0x00000000        0x0 build/default/production/_ext/1360937237/main.o
 .bss           0x00000000        0x0 build/default/production/_ext/1360937237/main.o
 .reginfo       0x00000000       0x18 build/default/production/_ext/1360937237/main.o
 .text          0x00000000        0x0 build/default/production/_ext/1475996069/drv_tmr.o
 .data          0x00000000        0x0 build/default/production/_ext/1475996069/drv_tmr.o
 .reginfo       0x00000000       0x18 build/default/production/_ext/1475996069/drv_tmr.o
 .text.DRV_TMR_Deinitialize
                0x00000000       0x54 build/default/production/_ext/1475996069/drv_tmr.o
 .text.DRV_TMR_Status
                0x00000000       0x28 build/default/production/_ext/1475996069/drv_tmr.o
 .text.DRV_TMR_ClientStatus
                0x00000000       0x44 build/default/production/_ext/1475996069/drv_tmr.o
 .text.DRV_TMR_CounterValueSet
                0x00000000       0x60 build/default/production/_ext/1475996069/drv_tmr.o
 .text.DRV_TMR_CounterValueGet
                0x00000000       0x78 build/default/production/_ext/1475996069/drv_tmr.o
 .text.DRV_TMR_CounterClear
                0x00000000       0x58 build/default/production/_ext/1475996069/drv_tmr.o
 .text.DRV_TMR_AlarmDisable
                0x00000000       0x64 build/default/production/_ext/1475996069/drv_tmr.o
 .text.DRV_TMR_AlarmPeriodSet
                0x00000000       0xb0 build/default/production/_ext/1475996069/drv_tmr.o
 .text.DRV_TMR_AlarmPeriodGet
                0x00000000       0x3c build/default/production/_ext/1475996069/drv_tmr.o
 .text.DRV_TMR_AlarmDeregister
                0x00000000       0x60 build/default/production/_ext/1475996069/drv_tmr.o
 .text.DRV_TMR_Stop
                0x00000000       0x80 build/default/production/_ext/1475996069/drv_tmr.o
 .text.DRV_TMR_AlarmHasElapsed
                0x00000000       0x3c build/default/production/_ext/1475996069/drv_tmr.o
 .text.DRV_TMR_OperationModeGet
                0x00000000       0x3c build/default/production/_ext/1475996069/drv_tmr.o
 .text.DRV_TMR_DividerRangeGet
                0x00000000       0x74 build/default/production/_ext/1475996069/drv_tmr.o
 .text.DRV_TMR_GateModeSet
                0x00000000       0x6c build/default/production/_ext/1475996069/drv_tmr.o
 .text.DRV_TMR_GateModeClear
                0x00000000       0x6c build/default/production/_ext/1475996069/drv_tmr.o
 .text.DRV_TMR_ClockSet
                0x00000000       0xa4 build/default/production/_ext/1475996069/drv_tmr.o
 .text.DRV_TMR_PrescalerGet
                0x00000000      0x134 build/default/production/_ext/1475996069/drv_tmr.o
 .text          0x00000000        0x0 build/default/production/_ext/2105109636/sys_fs.o
 .data          0x00000000        0x0 build/default/production/_ext/2105109636/sys_fs.o
 .bss           0x00000000        0x0 build/default/production/_ext/2105109636/sys_fs.o
 .reginfo       0x00000000       0x18 build/default/production/_ext/2105109636/sys_fs.o
 .text.SYS_FS_FileNameGet
                0x00000000       0x90 build/default/production/_ext/2105109636/sys_fs.o
 .text.SYS_FS_FileRead
                0x00000000       0xcc build/default/production/_ext/2105109636/sys_fs.o
 .text.SYS_FS_FileSeek
                0x00000000      0x12c build/default/production/_ext/2105109636/sys_fs.o
 .text.SYS_FS_FileTell
                0x00000000       0xcc build/default/production/_ext/2105109636/sys_fs.o
 .text.SYS_FS_FileSize
                0x00000000       0xcc build/default/production/_ext/2105109636/sys_fs.o
 .text.SYS_FS_FileEOF
                0x00000000       0xb0 build/default/production/_ext/2105109636/sys_fs.o
 .text.SYS_FS_FileStat
                0x00000000       0xe0 build/default/production/_ext/2105109636/sys_fs.o
 .text.SYS_FS_Error
                0x00000000        0x8 build/default/production/_ext/2105109636/sys_fs.o
 .text.SYS_FS_FileError
                0x00000000       0x20 build/default/production/_ext/2105109636/sys_fs.o
 .text.SYS_FS_FileSync
                0x00000000       0xc4 build/default/production/_ext/2105109636/sys_fs.o
 .text.SYS_FS_FileTruncate
                0x00000000       0xb8 build/default/production/_ext/2105109636/sys_fs.o
 .text.SYS_FS_FileStringGet
                0x00000000       0xe0 build/default/production/_ext/2105109636/sys_fs.o
 .text.SYS_FS_FileCharacterPut
                0x00000000       0xd4 build/default/production/_ext/2105109636/sys_fs.o
 .text.SYS_FS_FileStringPut
                0x00000000       0xd8 build/default/production/_ext/2105109636/sys_fs.o
 .text.SYS_FS_FilePrintf
                0x00000000       0xe8 build/default/production/_ext/2105109636/sys_fs.o
 .text.SYS_FS_FileTestError
                0x00000000       0xb0 build/default/production/_ext/2105109636/sys_fs.o
 .text.SYS_FS_DirectoryMake
                0x00000000       0xcc build/default/production/_ext/2105109636/sys_fs.o
 .text.SYS_FS_DirectoryChange
                0x00000000       0xcc build/default/production/_ext/2105109636/sys_fs.o
 .text.SYS_FS_FileDirectoryRemove
                0x00000000       0xcc build/default/production/_ext/2105109636/sys_fs.o
 .text.SYS_FS_DirOpen
                0x00000000      0x140 build/default/production/_ext/2105109636/sys_fs.o
 .text.SYS_FS_DirClose
                0x00000000       0xc8 build/default/production/_ext/2105109636/sys_fs.o
 .text.SYS_FS_DirRead
                0x00000000       0xc8 build/default/production/_ext/2105109636/sys_fs.o
 .text.SYS_FS_DirRewind
                0x00000000       0xc8 build/default/production/_ext/2105109636/sys_fs.o
 .text.SYS_FS_DirSearch
                0x00000000      0x244 build/default/production/_ext/2105109636/sys_fs.o
 .text.SYS_FS_CurrentWorkingDirectoryGet
                0x00000000      0x1b8 build/default/production/_ext/2105109636/sys_fs.o
 .text.SYS_FS_FileDirectoryModeSet
                0x00000000       0xec build/default/production/_ext/2105109636/sys_fs.o
 .text.SYS_FS_FileDirectoryTimeSet
                0x00000000       0xf0 build/default/production/_ext/2105109636/sys_fs.o
 .text.SYS_FS_FileDirectoryRenameMove
                0x00000000      0x108 build/default/production/_ext/2105109636/sys_fs.o
 .text.SYS_FS_CurrentDriveGet
                0x00000000       0x7c build/default/production/_ext/2105109636/sys_fs.o
 .text.SYS_FS_CurrentDriveSet
                0x00000000       0xe4 build/default/production/_ext/2105109636/sys_fs.o
 .text.SYS_FS_DriveLabelGet
                0x00000000      0x100 build/default/production/_ext/2105109636/sys_fs.o
 .text.SYS_FS_DriveLabelSet
                0x00000000      0x114 build/default/production/_ext/2105109636/sys_fs.o
 .text.SYS_FS_DriveFormat
                0x00000000       0xbc build/default/production/_ext/2105109636/sys_fs.o
 .text.SYS_FS_DrivePartition
                0x00000000       0xc0 build/default/production/_ext/2105109636/sys_fs.o
 .text.SYS_FS_DriveSectorGet
                0x00000000      0x108 build/default/production/_ext/2105109636/sys_fs.o
 .text          0x00000000        0x0 build/default/production/_ext/2105109636/sys_fs_media_manager.o
 .bss           0x00000000        0x0 build/default/production/_ext/2105109636/sys_fs_media_manager.o
 .reginfo       0x00000000       0x18 build/default/production/_ext/2105109636/sys_fs_media_manager.o
 .text.SYS_FS_MEDIA_MANAGER_Read
                0x00000000       0x9c build/default/production/_ext/2105109636/sys_fs_media_manager.o
 .text.SYS_FS_MEDIA_MANAGER_AddressGet
                0x00000000       0x38 build/default/production/_ext/2105109636/sys_fs_media_manager.o
 .text.SYS_FS_MEDIA_MANAGER_CommandStatusGet
                0x00000000       0x54 build/default/production/_ext/2105109636/sys_fs_media_manager.o
 .text          0x00000000        0x0 build/default/production/_ext/312387365/ff.o
 .data          0x00000000        0x0 build/default/production/_ext/312387365/ff.o
 .reginfo       0x00000000       0x18 build/default/production/_ext/312387365/ff.o
 .text          0x00000000        0x0 build/default/production/_ext/456076708/diskio.o
 .data          0x00000000        0x0 build/default/production/_ext/456076708/diskio.o
 .bss           0x00000000        0x0 build/default/production/_ext/456076708/diskio.o
 .reginfo       0x00000000       0x18 build/default/production/_ext/456076708/diskio.o
 .text          0x00000000        0x0 build/default/production/_ext/1020727214/sys_int_pic32.o
 .data          0x00000000        0x0 build/default/production/_ext/1020727214/sys_int_pic32.o
 .bss           0x00000000        0x0 build/default/production/_ext/1020727214/sys_int_pic32.o
 .reginfo       0x00000000       0x18 build/default/production/_ext/1020727214/sys_int_pic32.o
 .text.SYS_INT_ExternalInterruptTriggerSet
                0x00000000       0x28 build/default/production/_ext/1020727214/sys_int_pic32.o
 .text          0x00000000        0x0 build/default/production/_ext/121402492/sys_tmr.o
 .data          0x00000000        0x0 build/default/production/_ext/121402492/sys_tmr.o
 .reginfo       0x00000000       0x18 build/default/production/_ext/121402492/sys_tmr.o
 .text._SYS_TMR_ClientCheckSrvLock
                0x00000000       0xb0 build/default/production/_ext/121402492/sys_tmr.o
 .text.SYS_TMR_Deinitialize
                0x00000000       0xd0 build/default/production/_ext/121402492/sys_tmr.o
 .text.SYS_TMR_Status
                0x00000000       0x20 build/default/production/_ext/121402492/sys_tmr.o
 .text.SYS_TMR_ModuleStatusGet
                0x00000000       0x18 build/default/production/_ext/121402492/sys_tmr.o
 .text.SYS_TMR_ObjectCreate
                0x00000000       0x1c build/default/production/_ext/121402492/sys_tmr.o
 .text.SYS_TMR_ObjectDelete
                0x00000000       0x50 build/default/production/_ext/121402492/sys_tmr.o
 .text.SYS_TMR_CallbackStop
                0x00000000       0x1c build/default/production/_ext/121402492/sys_tmr.o
 .text.SYS_TMR_ObjectReload
                0x00000000       0xb4 build/default/production/_ext/121402492/sys_tmr.o
 .text.SYS_TMR_ObjectCountGet
                0x00000000       0xe4 build/default/production/_ext/121402492/sys_tmr.o
 .text.SYS_TMR_DelayMS
                0x00000000       0x24 build/default/production/_ext/121402492/sys_tmr.o
 .text.SYS_TMR_DelayStatusGet
                0x00000000       0x20 build/default/production/_ext/121402492/sys_tmr.o
 .text.SYS_TMR_TickCountGet
                0x00000000       0x28 build/default/production/_ext/121402492/sys_tmr.o
 .text.SYS_TMR_TickCountGetLong
                0x00000000       0x4c build/default/production/_ext/121402492/sys_tmr.o
 .text.SYS_TMR_TickCounterFrequencyGet
                0x00000000       0x24 build/default/production/_ext/121402492/sys_tmr.o
 .text.SYS_TMR_SystemCountFrequencyGet
                0x00000000       0x24 build/default/production/_ext/121402492/sys_tmr.o
 .text.SYS_TMR_SystemCountGet
                0x00000000       0xec build/default/production/_ext/121402492/sys_tmr.o
 .text          0x00000000        0x0 build/default/production/_ext/1150371026/drv_usbfs.o
 .data          0x00000000        0x0 build/default/production/_ext/1150371026/drv_usbfs.o
 .bss           0x00000000        0x0 build/default/production/_ext/1150371026/drv_usbfs.o
 .reginfo       0x00000000       0x18 build/default/production/_ext/1150371026/drv_usbfs.o
 .text.DRV_USBFS_Deinitialize
                0x00000000       0x8c build/default/production/_ext/1150371026/drv_usbfs.o
 .text.DRV_USBFS_Status
                0x00000000       0x38 build/default/production/_ext/1150371026/drv_usbfs.o
 .text.DRV_USBFS_Tasks_ISR_USBDMA
                0x00000000        0x8 build/default/production/_ext/1150371026/drv_usbfs.o
 .text          0x00000000        0x0 build/default/production/_ext/1699675045/usb_host.o
 .data          0x00000000        0x0 build/default/production/_ext/1699675045/usb_host.o
 .reginfo       0x00000000       0x18 build/default/production/_ext/1699675045/usb_host.o
 .text._USB_HOST_FillSetupPacket
                0x00000000       0x38 build/default/production/_ext/1699675045/usb_host.o
 .text.USB_HOST_Status
                0x00000000       0x18 build/default/production/_ext/1699675045/usb_host.o
 .text.USB_HOST_Deinitialize
                0x00000000       0x10 build/default/production/_ext/1699675045/usb_host.o
 .text.USB_HOST_DeviceGetFirst
                0x00000000       0xb0 build/default/production/_ext/1699675045/usb_host.o
 .text.USB_HOST_DeviceGetNext
                0x00000000       0xa8 build/default/production/_ext/1699675045/usb_host.o
 .text.USB_HOST_EventHandlerSet
                0x00000000       0x18 build/default/production/_ext/1699675045/usb_host.o
 .text.USB_HOST_DeviceSpeedGet
                0x00000000       0x6c build/default/production/_ext/1699675045/usb_host.o
 .text.USB_HOST_BusEnable
                0x00000000       0x64 build/default/production/_ext/1699675045/usb_host.o
 .text.USB_HOST_BusDisable
                0x00000000       0x64 build/default/production/_ext/1699675045/usb_host.o
 .text.USB_HOST_BusIsEnabled
                0x00000000       0x40 build/default/production/_ext/1699675045/usb_host.o
 .text.USB_HOST_BusIsDisabled
                0x00000000       0x38 build/default/production/_ext/1699675045/usb_host.o
 .text.USB_HOST_BusSuspend
                0x00000000       0x8c build/default/production/_ext/1699675045/usb_host.o
 .text.USB_HOST_BusIsSuspended
                0x00000000       0x68 build/default/production/_ext/1699675045/usb_host.o
 .text.USB_HOST_BusResume
                0x00000000        0x8 build/default/production/_ext/1699675045/usb_host.o
 .text.USB_HOST_DeviceInterfaceQueryContextClear
                0x00000000       0x10 build/default/production/_ext/1699675045/usb_host.o
 .text.USB_HOST_DeviceRelease
                0x00000000       0x70 build/default/production/_ext/1699675045/usb_host.o
 .text.USB_HOST_DeviceIADQueryContextClear
                0x00000000       0x10 build/default/production/_ext/1699675045/usb_host.o
 .text.USB_HOST_DeviceConfigurationSet
                0x00000000       0xcc build/default/production/_ext/1699675045/usb_host.o
 .text.USB_HOST_DeviceInterfaceSet
                0x00000000      0x1b8 build/default/production/_ext/1699675045/usb_host.o
 .text.USB_HOST_DeviceStringDescriptorGet
                0x00000000      0x1d8 build/default/production/_ext/1699675045/usb_host.o
 .text.USB_HOST_OverCurrentDetected
                0x00000000       0x38 build/default/production/_ext/1699675045/usb_host.o
 .text.USB_HOST_DeviceConfigurationDescriptorGet
                0x00000000      0x180 build/default/production/_ext/1699675045/usb_host.o
 .text          0x00000000        0x0 build/default/production/_ext/1150371026/drv_usbfs_host.o
 .bss           0x00000000        0x0 build/default/production/_ext/1150371026/drv_usbfs_host.o
 .reginfo       0x00000000       0x18 build/default/production/_ext/1150371026/drv_usbfs_host.o
 .text._DRV_USBFS_SendTokenToAddress
                0x00000000       0x30 build/default/production/_ext/1150371026/drv_usbfs_host.o
 .text          0x00000000        0x0 build/default/production/_ext/1699675045/usb_host_msd.o
 .bss           0x00000000        0x0 build/default/production/_ext/1699675045/usb_host_msd.o
 .reginfo       0x00000000       0x18 build/default/production/_ext/1699675045/usb_host_msd.o
 .text._USB_HOST_MSD_GetMaxLUNPacketCreate
                0x00000000       0x30 build/default/production/_ext/1699675045/usb_host_msd.o
 .text._USB_HOST_MSD_ResetPacketCreate
                0x00000000       0x2c build/default/production/_ext/1699675045/usb_host_msd.o
 .text          0x00000000        0x0 build/default/production/_ext/1699675045/usb_host_scsi.o
 .bss           0x00000000        0x0 build/default/production/_ext/1699675045/usb_host_scsi.o
 .reginfo       0x00000000       0x18 build/default/production/_ext/1699675045/usb_host_scsi.o
 .text.USB_HOST_SCSI_MSDLUNHandleGet
                0x00000000       0x48 build/default/production/_ext/1699675045/usb_host_scsi.o
 .text.USB_HOST_SCSI_AttachEventHandlerSet
                0x00000000        0xc build/default/production/_ext/1699675045/usb_host_scsi.o
 .text          0x00000000        0x0 build/default/production/_ext/639803181/sys_clk_pic32mx.o
 .data          0x00000000        0x0 build/default/production/_ext/639803181/sys_clk_pic32mx.o
 .bss           0x00000000        0x0 build/default/production/_ext/639803181/sys_clk_pic32mx.o
 .reginfo       0x00000000       0x18 build/default/production/_ext/639803181/sys_clk_pic32mx.o
 .text.SYS_CLK_ReferenceFrequencyGet
                0x00000000        0x8 build/default/production/_ext/639803181/sys_clk_pic32mx.o
 .text.SYS_CLK_SecondaryOscillatorDisable
                0x00000000       0x48 build/default/production/_ext/639803181/sys_clk_pic32mx.o
 .text.SYS_CLK_SecondaryOscillatorIsEnabled
                0x00000000       0x10 build/default/production/_ext/639803181/sys_clk_pic32mx.o
 .text          0x00000000        0x0 build/default/production/_ext/340578644/sys_devcon.o
 .data          0x00000000        0x0 build/default/production/_ext/340578644/sys_devcon.o
 .bss           0x00000000        0x0 build/default/production/_ext/340578644/sys_devcon.o
 .reginfo       0x00000000       0x18 build/default/production/_ext/340578644/sys_devcon.o
 .text.SYS_DEVCON_Reinitialize
                0x00000000       0x10 build/default/production/_ext/340578644/sys_devcon.o
 .text.SYS_DEVCON_Deinitialize
                0x00000000        0x8 build/default/production/_ext/340578644/sys_devcon.o
 .text.SYS_DEVCON_Status
                0x00000000        0x8 build/default/production/_ext/340578644/sys_devcon.o
 .text.SYS_DEVCON_Tasks
                0x00000000        0x8 build/default/production/_ext/340578644/sys_devcon.o
 .text.SYS_DEVCON_JTAGDisable
                0x00000000       0x18 build/default/production/_ext/340578644/sys_devcon.o
 .text.SYS_DEVCON_TraceEnable
                0x00000000       0x1c build/default/production/_ext/340578644/sys_devcon.o
 .text.SYS_DEVCON_TraceDisable
                0x00000000       0x18 build/default/production/_ext/340578644/sys_devcon.o
 .text.SYS_DEVCON_PowerModeEnter
                0x00000000       0x44 build/default/production/_ext/340578644/sys_devcon.o
 .text          0x00000000        0x0 build/default/production/_ext/340578644/sys_devcon_pic32mx.o
 .data          0x00000000        0x0 build/default/production/_ext/340578644/sys_devcon_pic32mx.o
 .bss           0x00000000        0x0 build/default/production/_ext/340578644/sys_devcon_pic32mx.o
 .reginfo       0x00000000       0x18 build/default/production/_ext/340578644/sys_devcon_pic32mx.o
 .text          0x00000000        0x0 build/default/production/_ext/822048611/sys_ports_static.o
 .data          0x00000000        0x0 build/default/production/_ext/822048611/sys_ports_static.o
 .bss           0x00000000        0x0 build/default/production/_ext/822048611/sys_ports_static.o
 .reginfo       0x00000000       0x18 build/default/production/_ext/822048611/sys_ports_static.o
 .text.SYS_PORTS_Read
                0x00000000       0x28 build/default/production/_ext/822048611/sys_ports_static.o
 .text.SYS_PORTS_Write
                0x00000000       0x28 build/default/production/_ext/822048611/sys_ports_static.o
 .text.SYS_PORTS_LatchedGet
                0x00000000        0x8 build/default/production/_ext/822048611/sys_ports_static.o
 .text.SYS_PORTS_Set
                0x00000000       0x2c build/default/production/_ext/822048611/sys_ports_static.o
 .text.SYS_PORTS_Clear
                0x00000000       0x28 build/default/production/_ext/822048611/sys_ports_static.o
 .text.SYS_PORTS_DirectionSelect
                0x00000000       0x54 build/default/production/_ext/822048611/sys_ports_static.o
 .text.SYS_PORTS_DirectionGet
                0x00000000       0x28 build/default/production/_ext/822048611/sys_ports_static.o
 .text.SYS_PORTS_Toggle
                0x00000000       0x28 build/default/production/_ext/822048611/sys_ports_static.o
 .text.SYS_PORTS_OpenDrainEnable
                0x00000000       0x28 build/default/production/_ext/822048611/sys_ports_static.o
 .text.SYS_PORTS_OpenDrainDisable
                0x00000000       0x28 build/default/production/_ext/822048611/sys_ports_static.o
 .text.SYS_PORTS_InterruptStatusGet
                0x00000000        0x8 build/default/production/_ext/822048611/sys_ports_static.o
 .text.SYS_PORTS_ChangeNotificationGlobalEnable
                0x00000000       0x14 build/default/production/_ext/822048611/sys_ports_static.o
 .text.SYS_PORTS_ChangeNotificationGlobalDisable
                0x00000000       0x14 build/default/production/_ext/822048611/sys_ports_static.o
 .text.SYS_PORTS_GlobalChangeNotificationDisable
                0x00000000       0x14 build/default/production/_ext/822048611/sys_ports_static.o
 .text.SYS_PORTS_ChangeNotificationEnable
                0x00000000       0x50 build/default/production/_ext/822048611/sys_ports_static.o
 .text.SYS_PORTS_ChangeNotificationDisable
                0x00000000       0x18 build/default/production/_ext/822048611/sys_ports_static.o
 .text.SYS_PORTS_ChangeNotificationInIdleModeEnable
                0x00000000       0x14 build/default/production/_ext/822048611/sys_ports_static.o
 .text.SYS_PORTS_ChangeNotificationInIdleModeDisable
                0x00000000       0x14 build/default/production/_ext/822048611/sys_ports_static.o
 .text.SYS_PORTS_ChangeNotificationPullUpEnable
                0x00000000       0x18 build/default/production/_ext/822048611/sys_ports_static.o
 .text.SYS_PORTS_ChangeNotificationPullUpDisable
                0x00000000       0x18 build/default/production/_ext/822048611/sys_ports_static.o
 .text.SYS_PORTS_PinModeSelect
                0x00000000       0x2c build/default/production/_ext/822048611/sys_ports_static.o
 .text.SYS_PORTS_PinWrite
                0x00000000       0x60 build/default/production/_ext/822048611/sys_ports_static.o
 .text.SYS_PORTS_PinLatchedGet
                0x00000000        0x8 build/default/production/_ext/822048611/sys_ports_static.o
 .text.SYS_PORTS_PinRead
                0x00000000       0x2c build/default/production/_ext/822048611/sys_ports_static.o
 .text.SYS_PORTS_PinToggle
                0x00000000       0x30 build/default/production/_ext/822048611/sys_ports_static.o
 .text.SYS_PORTS_PinSet
                0x00000000       0x30 build/default/production/_ext/822048611/sys_ports_static.o
 .text.SYS_PORTS_PinClear
                0x00000000       0x30 build/default/production/_ext/822048611/sys_ports_static.o
 .text.SYS_PORTS_PinDirectionSelect
                0x00000000       0x60 build/default/production/_ext/822048611/sys_ports_static.o
 .text.SYS_PORTS_PinOpenDrainEnable
                0x00000000       0x30 build/default/production/_ext/822048611/sys_ports_static.o
 .text.SYS_PORTS_PinOpenDrainDisable
                0x00000000       0x30 build/default/production/_ext/822048611/sys_ports_static.o
 .text.SYS_PORTS_PinPullUpEnable
                0x00000000        0x8 build/default/production/_ext/822048611/sys_ports_static.o
 .text.SYS_PORTS_PinPullUpDisable
                0x00000000        0x8 build/default/production/_ext/822048611/sys_ports_static.o
 .text.SYS_PORTS_PinPullDownEnable
                0x00000000        0x8 build/default/production/_ext/822048611/sys_ports_static.o
 .text.SYS_PORTS_PinPullDownDisable
                0x00000000        0x8 build/default/production/_ext/822048611/sys_ports_static.o
 .text.SYS_PORTS_InterruptEnable
                0x00000000        0x8 build/default/production/_ext/822048611/sys_ports_static.o
 .text.SYS_PORTS_RemapInput
                0x00000000        0x8 build/default/production/_ext/822048611/sys_ports_static.o
 .text.SYS_PORTS_RemapOutput
                0x00000000        0x8 build/default/production/_ext/822048611/sys_ports_static.o
 .text          0x00000000        0x0 build/default/production/_ext/74298950/bsp.o
 .data          0x00000000        0x0 build/default/production/_ext/74298950/bsp.o
 .bss           0x00000000        0x0 build/default/production/_ext/74298950/bsp.o
 .reginfo       0x00000000       0x18 build/default/production/_ext/74298950/bsp.o
 .text.BSP_SwitchStateGet
                0x00000000       0x14 build/default/production/_ext/74298950/bsp.o
 .text.BSP_USBVBUSSwitchStateSet
                0x00000000       0x28 build/default/production/_ext/74298950/bsp.o
 .text          0x00000000        0x0 build/default/production/_ext/1688732426/system_init.o
 .data          0x00000000        0x0 build/default/production/_ext/1688732426/system_init.o
 .bss           0x00000000        0x0 build/default/production/_ext/1688732426/system_init.o
 .reginfo       0x00000000       0x18 build/default/production/_ext/1688732426/system_init.o
 .text          0x00000000        0x0 build/default/production/_ext/1688732426/system_interrupt.o
 .data          0x00000000        0x0 build/default/production/_ext/1688732426/system_interrupt.o
 .bss           0x00000000        0x0 build/default/production/_ext/1688732426/system_interrupt.o
 .reginfo       0x00000000       0x18 build/default/production/_ext/1688732426/system_interrupt.o
 .text          0x00000000        0x0 build/default/production/_ext/1688732426/system_exceptions.o
 .data          0x00000000        0x0 build/default/production/_ext/1688732426/system_exceptions.o
 .bss           0x00000000        0x0 build/default/production/_ext/1688732426/system_exceptions.o
 .reginfo       0x00000000       0x18 build/default/production/_ext/1688732426/system_exceptions.o
 .text          0x00000000        0x0 build/default/production/_ext/1688732426/system_tasks.o
 .data          0x00000000        0x0 build/default/production/_ext/1688732426/system_tasks.o
 .bss           0x00000000        0x0 build/default/production/_ext/1688732426/system_tasks.o
 .reginfo       0x00000000       0x18 build/default/production/_ext/1688732426/system_tasks.o
 .text          0x00000000        0x0 C:\Users\Booo_kat\AppData\Local\Temp\cc6Zd3pF.o
 .data          0x00000000        0x0 C:\Users\Booo_kat\AppData\Local\Temp\cc6Zd3pF.o
 .bss           0x00000000        0x0 C:\Users\Booo_kat\AppData\Local\Temp\cc6Zd3pF.o
 .reginfo       0x00000000       0x18 C:\Users\Booo_kat\AppData\Local\Temp\cc6Zd3pF.o
 .text          0x00000000        0x0 C:\Users\Booo_kat\AppData\Local\Temp\ccxX2RaR.o
 .data          0x00000000        0x0 C:\Users\Booo_kat\AppData\Local\Temp\ccxX2RaR.o
 .bss           0x00000000        0x0 C:\Users\Booo_kat\AppData\Local\Temp\ccxX2RaR.o
 .reginfo       0x00000000       0x18 C:\Users\Booo_kat\AppData\Local\Temp\ccxX2RaR.o
 .text          0x00000000        0x0 C:\Users\Booo_kat\AppData\Local\Temp\cc0xT7Bt.o
 .data          0x00000000        0x0 C:\Users\Booo_kat\AppData\Local\Temp\cc0xT7Bt.o
 .bss           0x00000000        0x0 C:\Users\Booo_kat\AppData\Local\Temp\cc0xT7Bt.o
 .reginfo       0x00000000       0x18 C:\Users\Booo_kat\AppData\Local\Temp\cc0xT7Bt.o
 .discard       0x00000000       0xd0 C:\Users\Booo_kat\AppData\Local\Temp\cc0xT7Bt.o
 .data          0x00000000        0x0 c:/program files/microchip/xc32/v2.40/bin/bin/../../lib/gcc/pic32mx/4.8.3/../../../../pic32mx/lib\pic32_software_reset.o
 .bss           0x00000000        0x0 c:/program files/microchip/xc32/v2.40/bin/bin/../../lib/gcc/pic32mx/4.8.3/../../../../pic32mx/lib\pic32_software_reset.o
 .reginfo       0x00000000       0x18 c:/program files/microchip/xc32/v2.40/bin/bin/../../lib/gcc/pic32mx/4.8.3/../../../../pic32mx/lib\pic32_software_reset.o
 .text          0x00000000        0x0 c:/program files/microchip/xc32/v2.40/bin/bin/../../lib/gcc/pic32mx/4.8.3/../../../../pic32mx/lib/./proc/32MX795F512L\processor.o
 .data          0x00000000        0x0 c:/program files/microchip/xc32/v2.40/bin/bin/../../lib/gcc/pic32mx/4.8.3/../../../../pic32mx/lib/./proc/32MX795F512L\processor.o
 .bss           0x00000000        0x0 c:/program files/microchip/xc32/v2.40/bin/bin/../../lib/gcc/pic32mx/4.8.3/../../../../pic32mx/lib/./proc/32MX795F512L\processor.o
 .reginfo       0x00000000       0x18 c:/program files/microchip/xc32/v2.40/bin/bin/../../lib/gcc/pic32mx/4.8.3/../../../../pic32mx/lib/./proc/32MX795F512L\processor.o
 .data          0x00000000        0x0 c:/program files/microchip/xc32/v2.40/bin/bin/../../lib/gcc/pic32mx/4.8.3\libgcc.a(_udivdi3.o)
 .bss           0x00000000        0x0 c:/program files/microchip/xc32/v2.40/bin/bin/../../lib/gcc/pic32mx/4.8.3\libgcc.a(_udivdi3.o)
 .reginfo       0x00000000       0x18 c:/program files/microchip/xc32/v2.40/bin/bin/../../lib/gcc/pic32mx/4.8.3\libgcc.a(_udivdi3.o)
 .data          0x00000000        0x0 c:/program files/microchip/xc32/v2.40/bin/bin/../../lib/gcc/pic32mx/4.8.3/../../../../pic32mx/lib\libpic32.a(memcmp.o)
 .bss           0x00000000        0x0 c:/program files/microchip/xc32/v2.40/bin/bin/../../lib/gcc/pic32mx/4.8.3/../../../../pic32mx/lib\libpic32.a(memcmp.o)
 .reginfo       0x00000000       0x18 c:/program files/microchip/xc32/v2.40/bin/bin/../../lib/gcc/pic32mx/4.8.3/../../../../pic32mx/lib\libpic32.a(memcmp.o)
 .data          0x00000000        0x0 c:/program files/microchip/xc32/v2.40/bin/bin/../../lib/gcc/pic32mx/4.8.3/../../../../pic32mx/lib\libpic32.a(memcpy.o)
 .bss           0x00000000        0x0 c:/program files/microchip/xc32/v2.40/bin/bin/../../lib/gcc/pic32mx/4.8.3/../../../../pic32mx/lib\libpic32.a(memcpy.o)
 .reginfo       0x00000000       0x18 c:/program files/microchip/xc32/v2.40/bin/bin/../../lib/gcc/pic32mx/4.8.3/../../../../pic32mx/lib\libpic32.a(memcpy.o)
 .data          0x00000000        0x0 c:/program files/microchip/xc32/v2.40/bin/bin/../../lib/gcc/pic32mx/4.8.3/../../../../pic32mx/lib\libpic32.a(memset.o)
 .bss           0x00000000        0x0 c:/program files/microchip/xc32/v2.40/bin/bin/../../lib/gcc/pic32mx/4.8.3/../../../../pic32mx/lib\libpic32.a(memset.o)
 .reginfo       0x00000000       0x18 c:/program files/microchip/xc32/v2.40/bin/bin/../../lib/gcc/pic32mx/4.8.3/../../../../pic32mx/lib\libpic32.a(memset.o)
 .data          0x00000000        0x0 c:/program files/microchip/xc32/v2.40/bin/bin/../../lib/gcc/pic32mx/4.8.3/../../../../pic32mx/lib\libpic32.a(strcmp.o)
 .bss           0x00000000        0x0 c:/program files/microchip/xc32/v2.40/bin/bin/../../lib/gcc/pic32mx/4.8.3/../../../../pic32mx/lib\libpic32.a(strcmp.o)
 .reginfo       0x00000000       0x18 c:/program files/microchip/xc32/v2.40/bin/bin/../../lib/gcc/pic32mx/4.8.3/../../../../pic32mx/lib\libpic32.a(strcmp.o)
 .text          0x00000000      0x1a0 c:/program files/microchip/xc32/v2.40/bin/bin/../../lib/gcc/pic32mx/4.8.3/../../../../pic32mx/lib\libpic32.a(strcpy.o)
 .data          0x00000000        0x0 c:/program files/microchip/xc32/v2.40/bin/bin/../../lib/gcc/pic32mx/4.8.3/../../../../pic32mx/lib\libpic32.a(strcpy.o)
 .bss           0x00000000        0x0 c:/program files/microchip/xc32/v2.40/bin/bin/../../lib/gcc/pic32mx/4.8.3/../../../../pic32mx/lib\libpic32.a(strcpy.o)
 .reginfo       0x00000000       0x18 c:/program files/microchip/xc32/v2.40/bin/bin/../../lib/gcc/pic32mx/4.8.3/../../../../pic32mx/lib\libpic32.a(strcpy.o)
 .comment       0x00000000       0x1a c:/program files/microchip/xc32/v2.40/bin/bin/../../lib/gcc/pic32mx/4.8.3/../../../../pic32mx/lib\libpic32.a(strcpy.o)
 .data          0x00000000        0x0 c:/program files/microchip/xc32/v2.40/bin/bin/../../lib/gcc/pic32mx/4.8.3/../../../../pic32mx/lib\libpic32.a(strlen.o)
 .bss           0x00000000        0x0 c:/program files/microchip/xc32/v2.40/bin/bin/../../lib/gcc/pic32mx/4.8.3/../../../../pic32mx/lib\libpic32.a(strlen.o)
 .reginfo       0x00000000       0x18 c:/program files/microchip/xc32/v2.40/bin/bin/../../lib/gcc/pic32mx/4.8.3/../../../../pic32mx/lib\libpic32.a(strlen.o)
 .text          0x00000000        0x0 c:/program files/microchip/xc32/v2.40/bin/bin/../../lib/gcc/pic32mx/4.8.3/../../../../pic32mx/lib\libpic32.a(default-bootstrap-exception-handler.o)
 .data          0x00000000        0x0 c:/program files/microchip/xc32/v2.40/bin/bin/../../lib/gcc/pic32mx/4.8.3/../../../../pic32mx/lib\libpic32.a(default-bootstrap-exception-handler.o)
 .bss           0x00000000        0x0 c:/program files/microchip/xc32/v2.40/bin/bin/../../lib/gcc/pic32mx/4.8.3/../../../../pic32mx/lib\libpic32.a(default-bootstrap-exception-handler.o)
 .reginfo       0x00000000       0x18 c:/program files/microchip/xc32/v2.40/bin/bin/../../lib/gcc/pic32mx/4.8.3/../../../../pic32mx/lib\libpic32.a(default-bootstrap-exception-handler.o)
 .text          0x00000000        0x0 c:/program files/microchip/xc32/v2.40/bin/bin/../../lib/gcc/pic32mx/4.8.3/../../../../pic32mx/lib\libpic32.a(default-on-reset.o)
 .data          0x00000000        0x0 c:/program files/microchip/xc32/v2.40/bin/bin/../../lib/gcc/pic32mx/4.8.3/../../../../pic32mx/lib\libpic32.a(default-on-reset.o)
 .bss           0x00000000        0x0 c:/program files/microchip/xc32/v2.40/bin/bin/../../lib/gcc/pic32mx/4.8.3/../../../../pic32mx/lib\libpic32.a(default-on-reset.o)
 .reginfo       0x00000000       0x18 c:/program files/microchip/xc32/v2.40/bin/bin/../../lib/gcc/pic32mx/4.8.3/../../../../pic32mx/lib\libpic32.a(default-on-reset.o)
 .text          0x00000000        0x0 c:/program files/microchip/xc32/v2.40/bin/bin/../../lib/gcc/pic32mx/4.8.3/../../../../pic32mx/lib\libpic32.a(default-on-bootstrap.o)
 .data          0x00000000        0x0 c:/program files/microchip/xc32/v2.40/bin/bin/../../lib/gcc/pic32mx/4.8.3/../../../../pic32mx/lib\libpic32.a(default-on-bootstrap.o)
 .bss           0x00000000        0x0 c:/program files/microchip/xc32/v2.40/bin/bin/../../lib/gcc/pic32mx/4.8.3/../../../../pic32mx/lib\libpic32.a(default-on-bootstrap.o)
 .reginfo       0x00000000       0x18 c:/program files/microchip/xc32/v2.40/bin/bin/../../lib/gcc/pic32mx/4.8.3/../../../../pic32mx/lib\libpic32.a(default-on-bootstrap.o)
 .data          0x00000000        0x0 c:/program files/microchip/xc32/v2.40/bin/bin/../../lib/gcc/pic32mx/4.8.3/../../../../pic32mx/lib\libpic32.a(default-nmi-handler.o)
 .bss           0x00000000        0x0 c:/program files/microchip/xc32/v2.40/bin/bin/../../lib/gcc/pic32mx/4.8.3/../../../../pic32mx/lib\libpic32.a(default-nmi-handler.o)
 .reginfo       0x00000000       0x18 c:/program files/microchip/xc32/v2.40/bin/bin/../../lib/gcc/pic32mx/4.8.3/../../../../pic32mx/lib\libpic32.a(default-nmi-handler.o)
 .data          0x00000000        0x0 c:/program files/microchip/xc32/v2.40/bin/bin/../../lib/gcc/pic32mx/4.8.3/../../../../pic32mx/lib\libpic32.a(pic32_data_init.o)
 .bss           0x00000000        0x0 c:/program files/microchip/xc32/v2.40/bin/bin/../../lib/gcc/pic32mx/4.8.3/../../../../pic32mx/lib\libpic32.a(pic32_data_init.o)
 .reginfo       0x00000000       0x18 c:/program files/microchip/xc32/v2.40/bin/bin/../../lib/gcc/pic32mx/4.8.3/../../../../pic32mx/lib\libpic32.a(pic32_data_init.o)
 .text          0x00000000        0x0 c:/program files/microchip/xc32/v2.40/bin/bin/../../lib/gcc/pic32mx/4.8.3/../../../../pic32mx/lib\libpic32.a(general-exception.o)
 .data          0x00000000        0x0 c:/program files/microchip/xc32/v2.40/bin/bin/../../lib/gcc/pic32mx/4.8.3/../../../../pic32mx/lib\libpic32.a(general-exception.o)
 .bss           0x00000000        0x0 c:/program files/microchip/xc32/v2.40/bin/bin/../../lib/gcc/pic32mx/4.8.3/../../../../pic32mx/lib\libpic32.a(general-exception.o)
 .reginfo       0x00000000       0x18 c:/program files/microchip/xc32/v2.40/bin/bin/../../lib/gcc/pic32mx/4.8.3/../../../../pic32mx/lib\libpic32.a(general-exception.o)
 .text          0x00000000        0x0 c:/program files/microchip/xc32/v2.40/bin/bin/../../lib/gcc/pic32mx/4.8.3/../../../../pic32mx/lib\libpic32.a(vector0.o)
 .data          0x00000000        0x0 c:/program files/microchip/xc32/v2.40/bin/bin/../../lib/gcc/pic32mx/4.8.3/../../../../pic32mx/lib\libpic32.a(vector0.o)
 .bss           0x00000000        0x0 c:/program files/microchip/xc32/v2.40/bin/bin/../../lib/gcc/pic32mx/4.8.3/../../../../pic32mx/lib\libpic32.a(vector0.o)
 .reginfo       0x00000000       0x18 c:/program files/microchip/xc32/v2.40/bin/bin/../../lib/gcc/pic32mx/4.8.3/../../../../pic32mx/lib\libpic32.a(vector0.o)
 .text          0x00000000        0x0 c:/program files/microchip/xc32/v2.40/bin/bin/../../lib/gcc/pic32mx/4.8.3/../../../../pic32mx/lib\libpic32.a(vector1.o)
 .data          0x00000000        0x0 c:/program files/microchip/xc32/v2.40/bin/bin/../../lib/gcc/pic32mx/4.8.3/../../../../pic32mx/lib\libpic32.a(vector1.o)
 .bss           0x00000000        0x0 c:/program files/microchip/xc32/v2.40/bin/bin/../../lib/gcc/pic32mx/4.8.3/../../../../pic32mx/lib\libpic32.a(vector1.o)
 .reginfo       0x00000000       0x18 c:/program files/microchip/xc32/v2.40/bin/bin/../../lib/gcc/pic32mx/4.8.3/../../../../pic32mx/lib\libpic32.a(vector1.o)
 .text          0x00000000        0x0 c:/program files/microchip/xc32/v2.40/bin/bin/../../lib/gcc/pic32mx/4.8.3/../../../../pic32mx/lib\libpic32.a(vector2.o)
 .data          0x00000000        0x0 c:/program files/microchip/xc32/v2.40/bin/bin/../../lib/gcc/pic32mx/4.8.3/../../../../pic32mx/lib\libpic32.a(vector2.o)
 .bss           0x00000000        0x0 c:/program files/microchip/xc32/v2.40/bin/bin/../../lib/gcc/pic32mx/4.8.3/../../../../pic32mx/lib\libpic32.a(vector2.o)
 .reginfo       0x00000000       0x18 c:/program files/microchip/xc32/v2.40/bin/bin/../../lib/gcc/pic32mx/4.8.3/../../../../pic32mx/lib\libpic32.a(vector2.o)
 .text          0x00000000        0x0 c:/program files/microchip/xc32/v2.40/bin/bin/../../lib/gcc/pic32mx/4.8.3/../../../../pic32mx/lib\libpic32.a(vector3.o)
 .data          0x00000000        0x0 c:/program files/microchip/xc32/v2.40/bin/bin/../../lib/gcc/pic32mx/4.8.3/../../../../pic32mx/lib\libpic32.a(vector3.o)
 .bss           0x00000000        0x0 c:/program files/microchip/xc32/v2.40/bin/bin/../../lib/gcc/pic32mx/4.8.3/../../../../pic32mx/lib\libpic32.a(vector3.o)
 .reginfo       0x00000000       0x18 c:/program files/microchip/xc32/v2.40/bin/bin/../../lib/gcc/pic32mx/4.8.3/../../../../pic32mx/lib\libpic32.a(vector3.o)
 .text          0x00000000        0x0 c:/program files/microchip/xc32/v2.40/bin/bin/../../lib/gcc/pic32mx/4.8.3/../../../../pic32mx/lib\libpic32.a(vector5.o)
 .data          0x00000000        0x0 c:/program files/microchip/xc32/v2.40/bin/bin/../../lib/gcc/pic32mx/4.8.3/../../../../pic32mx/lib\libpic32.a(vector5.o)
 .bss           0x00000000        0x0 c:/program files/microchip/xc32/v2.40/bin/bin/../../lib/gcc/pic32mx/4.8.3/../../../../pic32mx/lib\libpic32.a(vector5.o)
 .reginfo       0x00000000       0x18 c:/program files/microchip/xc32/v2.40/bin/bin/../../lib/gcc/pic32mx/4.8.3/../../../../pic32mx/lib\libpic32.a(vector5.o)
 .text          0x00000000        0x0 c:/program files/microchip/xc32/v2.40/bin/bin/../../lib/gcc/pic32mx/4.8.3/../../../../pic32mx/lib\libpic32.a(vector6.o)
 .data          0x00000000        0x0 c:/program files/microchip/xc32/v2.40/bin/bin/../../lib/gcc/pic32mx/4.8.3/../../../../pic32mx/lib\libpic32.a(vector6.o)
 .bss           0x00000000        0x0 c:/program files/microchip/xc32/v2.40/bin/bin/../../lib/gcc/pic32mx/4.8.3/../../../../pic32mx/lib\libpic32.a(vector6.o)
 .reginfo       0x00000000       0x18 c:/program files/microchip/xc32/v2.40/bin/bin/../../lib/gcc/pic32mx/4.8.3/../../../../pic32mx/lib\libpic32.a(vector6.o)
 .text          0x00000000        0x0 c:/program files/microchip/xc32/v2.40/bin/bin/../../lib/gcc/pic32mx/4.8.3/../../../../pic32mx/lib\libpic32.a(vector7.o)
 .data          0x00000000        0x0 c:/program files/microchip/xc32/v2.40/bin/bin/../../lib/gcc/pic32mx/4.8.3/../../../../pic32mx/lib\libpic32.a(vector7.o)
 .bss           0x00000000        0x0 c:/program files/microchip/xc32/v2.40/bin/bin/../../lib/gcc/pic32mx/4.8.3/../../../../pic32mx/lib\libpic32.a(vector7.o)
 .reginfo       0x00000000       0x18 c:/program files/microchip/xc32/v2.40/bin/bin/../../lib/gcc/pic32mx/4.8.3/../../../../pic32mx/lib\libpic32.a(vector7.o)
 .text          0x00000000        0x0 c:/program files/microchip/xc32/v2.40/bin/bin/../../lib/gcc/pic32mx/4.8.3/../../../../pic32mx/lib\libpic32.a(vector8.o)
 .data          0x00000000        0x0 c:/program files/microchip/xc32/v2.40/bin/bin/../../lib/gcc/pic32mx/4.8.3/../../../../pic32mx/lib\libpic32.a(vector8.o)
 .bss           0x00000000        0x0 c:/program files/microchip/xc32/v2.40/bin/bin/../../lib/gcc/pic32mx/4.8.3/../../../../pic32mx/lib\libpic32.a(vector8.o)
 .reginfo       0x00000000       0x18 c:/program files/microchip/xc32/v2.40/bin/bin/../../lib/gcc/pic32mx/4.8.3/../../../../pic32mx/lib\libpic32.a(vector8.o)
 .text          0x00000000        0x0 c:/program files/microchip/xc32/v2.40/bin/bin/../../lib/gcc/pic32mx/4.8.3/../../../../pic32mx/lib\libpic32.a(vector9.o)
 .data          0x00000000        0x0 c:/program files/microchip/xc32/v2.40/bin/bin/../../lib/gcc/pic32mx/4.8.3/../../../../pic32mx/lib\libpic32.a(vector9.o)
 .bss           0x00000000        0x0 c:/program files/microchip/xc32/v2.40/bin/bin/../../lib/gcc/pic32mx/4.8.3/../../../../pic32mx/lib\libpic32.a(vector9.o)
 .reginfo       0x00000000       0x18 c:/program files/microchip/xc32/v2.40/bin/bin/../../lib/gcc/pic32mx/4.8.3/../../../../pic32mx/lib\libpic32.a(vector9.o)
 .text          0x00000000        0x0 c:/program files/microchip/xc32/v2.40/bin/bin/../../lib/gcc/pic32mx/4.8.3/../../../../pic32mx/lib\libpic32.a(vector10.o)
 .data          0x00000000        0x0 c:/program files/microchip/xc32/v2.40/bin/bin/../../lib/gcc/pic32mx/4.8.3/../../../../pic32mx/lib\libpic32.a(vector10.o)
 .bss           0x00000000        0x0 c:/program files/microchip/xc32/v2.40/bin/bin/../../lib/gcc/pic32mx/4.8.3/../../../../pic32mx/lib\libpic32.a(vector10.o)
 .reginfo       0x00000000       0x18 c:/program files/microchip/xc32/v2.40/bin/bin/../../lib/gcc/pic32mx/4.8.3/../../../../pic32mx/lib\libpic32.a(vector10.o)
 .text          0x00000000        0x0 c:/program files/microchip/xc32/v2.40/bin/bin/../../lib/gcc/pic32mx/4.8.3/../../../../pic32mx/lib\libpic32.a(vector11.o)
 .data          0x00000000        0x0 c:/program files/microchip/xc32/v2.40/bin/bin/../../lib/gcc/pic32mx/4.8.3/../../../../pic32mx/lib\libpic32.a(vector11.o)
 .bss           0x00000000        0x0 c:/program files/microchip/xc32/v2.40/bin/bin/../../lib/gcc/pic32mx/4.8.3/../../../../pic32mx/lib\libpic32.a(vector11.o)
 .reginfo       0x00000000       0x18 c:/program files/microchip/xc32/v2.40/bin/bin/../../lib/gcc/pic32mx/4.8.3/../../../../pic32mx/lib\libpic32.a(vector11.o)
 .text          0x00000000        0x0 c:/program files/microchip/xc32/v2.40/bin/bin/../../lib/gcc/pic32mx/4.8.3/../../../../pic32mx/lib\libpic32.a(vector12.o)
 .data          0x00000000        0x0 c:/program files/microchip/xc32/v2.40/bin/bin/../../lib/gcc/pic32mx/4.8.3/../../../../pic32mx/lib\libpic32.a(vector12.o)
 .bss           0x00000000        0x0 c:/program files/microchip/xc32/v2.40/bin/bin/../../lib/gcc/pic32mx/4.8.3/../../../../pic32mx/lib\libpic32.a(vector12.o)
 .reginfo       0x00000000       0x18 c:/program files/microchip/xc32/v2.40/bin/bin/../../lib/gcc/pic32mx/4.8.3/../../../../pic32mx/lib\libpic32.a(vector12.o)
 .text          0x00000000        0x0 c:/program files/microchip/xc32/v2.40/bin/bin/../../lib/gcc/pic32mx/4.8.3/../../../../pic32mx/lib\libpic32.a(vector13.o)
 .data          0x00000000        0x0 c:/program files/microchip/xc32/v2.40/bin/bin/../../lib/gcc/pic32mx/4.8.3/../../../../pic32mx/lib\libpic32.a(vector13.o)
 .bss           0x00000000        0x0 c:/program files/microchip/xc32/v2.40/bin/bin/../../lib/gcc/pic32mx/4.8.3/../../../../pic32mx/lib\libpic32.a(vector13.o)
 .reginfo       0x00000000       0x18 c:/program files/microchip/xc32/v2.40/bin/bin/../../lib/gcc/pic32mx/4.8.3/../../../../pic32mx/lib\libpic32.a(vector13.o)
 .text          0x00000000        0x0 c:/program files/microchip/xc32/v2.40/bin/bin/../../lib/gcc/pic32mx/4.8.3/../../../../pic32mx/lib\libpic32.a(vector14.o)
 .data          0x00000000        0x0 c:/program files/microchip/xc32/v2.40/bin/bin/../../lib/gcc/pic32mx/4.8.3/../../../../pic32mx/lib\libpic32.a(vector14.o)
 .bss           0x00000000        0x0 c:/program files/microchip/xc32/v2.40/bin/bin/../../lib/gcc/pic32mx/4.8.3/../../../../pic32mx/lib\libpic32.a(vector14.o)
 .reginfo       0x00000000       0x18 c:/program files/microchip/xc32/v2.40/bin/bin/../../lib/gcc/pic32mx/4.8.3/../../../../pic32mx/lib\libpic32.a(vector14.o)
 .text          0x00000000        0x0 c:/program files/microchip/xc32/v2.40/bin/bin/../../lib/gcc/pic32mx/4.8.3/../../../../pic32mx/lib\libpic32.a(vector15.o)
 .data          0x00000000        0x0 c:/program files/microchip/xc32/v2.40/bin/bin/../../lib/gcc/pic32mx/4.8.3/../../../../pic32mx/lib\libpic32.a(vector15.o)
 .bss           0x00000000        0x0 c:/program files/microchip/xc32/v2.40/bin/bin/../../lib/gcc/pic32mx/4.8.3/../../../../pic32mx/lib\libpic32.a(vector15.o)
 .reginfo       0x00000000       0x18 c:/program files/microchip/xc32/v2.40/bin/bin/../../lib/gcc/pic32mx/4.8.3/../../../../pic32mx/lib\libpic32.a(vector15.o)
 .text          0x00000000        0x0 c:/program files/microchip/xc32/v2.40/bin/bin/../../lib/gcc/pic32mx/4.8.3/../../../../pic32mx/lib\libpic32.a(vector16.o)
 .data          0x00000000        0x0 c:/program files/microchip/xc32/v2.40/bin/bin/../../lib/gcc/pic32mx/4.8.3/../../../../pic32mx/lib\libpic32.a(vector16.o)
 .bss           0x00000000        0x0 c:/program files/microchip/xc32/v2.40/bin/bin/../../lib/gcc/pic32mx/4.8.3/../../../../pic32mx/lib\libpic32.a(vector16.o)
 .reginfo       0x00000000       0x18 c:/program files/microchip/xc32/v2.40/bin/bin/../../lib/gcc/pic32mx/4.8.3/../../../../pic32mx/lib\libpic32.a(vector16.o)
 .text          0x00000000        0x0 c:/program files/microchip/xc32/v2.40/bin/bin/../../lib/gcc/pic32mx/4.8.3/../../../../pic32mx/lib\libpic32.a(vector17.o)
 .data          0x00000000        0x0 c:/program files/microchip/xc32/v2.40/bin/bin/../../lib/gcc/pic32mx/4.8.3/../../../../pic32mx/lib\libpic32.a(vector17.o)
 .bss           0x00000000        0x0 c:/program files/microchip/xc32/v2.40/bin/bin/../../lib/gcc/pic32mx/4.8.3/../../../../pic32mx/lib\libpic32.a(vector17.o)
 .reginfo       0x00000000       0x18 c:/program files/microchip/xc32/v2.40/bin/bin/../../lib/gcc/pic32mx/4.8.3/../../../../pic32mx/lib\libpic32.a(vector17.o)
 .text          0x00000000        0x0 c:/program files/microchip/xc32/v2.40/bin/bin/../../lib/gcc/pic32mx/4.8.3/../../../../pic32mx/lib\libpic32.a(vector18.o)
 .data          0x00000000        0x0 c:/program files/microchip/xc32/v2.40/bin/bin/../../lib/gcc/pic32mx/4.8.3/../../../../pic32mx/lib\libpic32.a(vector18.o)
 .bss           0x00000000        0x0 c:/program files/microchip/xc32/v2.40/bin/bin/../../lib/gcc/pic32mx/4.8.3/../../../../pic32mx/lib\libpic32.a(vector18.o)
 .reginfo       0x00000000       0x18 c:/program files/microchip/xc32/v2.40/bin/bin/../../lib/gcc/pic32mx/4.8.3/../../../../pic32mx/lib\libpic32.a(vector18.o)
 .text          0x00000000        0x0 c:/program files/microchip/xc32/v2.40/bin/bin/../../lib/gcc/pic32mx/4.8.3/../../../../pic32mx/lib\libpic32.a(vector19.o)
 .data          0x00000000        0x0 c:/program files/microchip/xc32/v2.40/bin/bin/../../lib/gcc/pic32mx/4.8.3/../../../../pic32mx/lib\libpic32.a(vector19.o)
 .bss           0x00000000        0x0 c:/program files/microchip/xc32/v2.40/bin/bin/../../lib/gcc/pic32mx/4.8.3/../../../../pic32mx/lib\libpic32.a(vector19.o)
 .reginfo       0x00000000       0x18 c:/program files/microchip/xc32/v2.40/bin/bin/../../lib/gcc/pic32mx/4.8.3/../../../../pic32mx/lib\libpic32.a(vector19.o)
 .text          0x00000000        0x0 c:/program files/microchip/xc32/v2.40/bin/bin/../../lib/gcc/pic32mx/4.8.3/../../../../pic32mx/lib\libpic32.a(vector20.o)
 .data          0x00000000        0x0 c:/program files/microchip/xc32/v2.40/bin/bin/../../lib/gcc/pic32mx/4.8.3/../../../../pic32mx/lib\libpic32.a(vector20.o)
 .bss           0x00000000        0x0 c:/program files/microchip/xc32/v2.40/bin/bin/../../lib/gcc/pic32mx/4.8.3/../../../../pic32mx/lib\libpic32.a(vector20.o)
 .reginfo       0x00000000       0x18 c:/program files/microchip/xc32/v2.40/bin/bin/../../lib/gcc/pic32mx/4.8.3/../../../../pic32mx/lib\libpic32.a(vector20.o)
 .text          0x00000000        0x0 c:/program files/microchip/xc32/v2.40/bin/bin/../../lib/gcc/pic32mx/4.8.3/../../../../pic32mx/lib\libpic32.a(vector21.o)
 .data          0x00000000        0x0 c:/program files/microchip/xc32/v2.40/bin/bin/../../lib/gcc/pic32mx/4.8.3/../../../../pic32mx/lib\libpic32.a(vector21.o)
 .bss           0x00000000        0x0 c:/program files/microchip/xc32/v2.40/bin/bin/../../lib/gcc/pic32mx/4.8.3/../../../../pic32mx/lib\libpic32.a(vector21.o)
 .reginfo       0x00000000       0x18 c:/program files/microchip/xc32/v2.40/bin/bin/../../lib/gcc/pic32mx/4.8.3/../../../../pic32mx/lib\libpic32.a(vector21.o)
 .text          0x00000000        0x0 c:/program files/microchip/xc32/v2.40/bin/bin/../../lib/gcc/pic32mx/4.8.3/../../../../pic32mx/lib\libpic32.a(vector22.o)
 .data          0x00000000        0x0 c:/program files/microchip/xc32/v2.40/bin/bin/../../lib/gcc/pic32mx/4.8.3/../../../../pic32mx/lib\libpic32.a(vector22.o)
 .bss           0x00000000        0x0 c:/program files/microchip/xc32/v2.40/bin/bin/../../lib/gcc/pic32mx/4.8.3/../../../../pic32mx/lib\libpic32.a(vector22.o)
 .reginfo       0x00000000       0x18 c:/program files/microchip/xc32/v2.40/bin/bin/../../lib/gcc/pic32mx/4.8.3/../../../../pic32mx/lib\libpic32.a(vector22.o)
 .text          0x00000000        0x0 c:/program files/microchip/xc32/v2.40/bin/bin/../../lib/gcc/pic32mx/4.8.3/../../../../pic32mx/lib\libpic32.a(vector23.o)
 .data          0x00000000        0x0 c:/program files/microchip/xc32/v2.40/bin/bin/../../lib/gcc/pic32mx/4.8.3/../../../../pic32mx/lib\libpic32.a(vector23.o)
 .bss           0x00000000        0x0 c:/program files/microchip/xc32/v2.40/bin/bin/../../lib/gcc/pic32mx/4.8.3/../../../../pic32mx/lib\libpic32.a(vector23.o)
 .reginfo       0x00000000       0x18 c:/program files/microchip/xc32/v2.40/bin/bin/../../lib/gcc/pic32mx/4.8.3/../../../../pic32mx/lib\libpic32.a(vector23.o)
 .text          0x00000000        0x0 c:/program files/microchip/xc32/v2.40/bin/bin/../../lib/gcc/pic32mx/4.8.3/../../../../pic32mx/lib\libpic32.a(vector24.o)
 .data          0x00000000        0x0 c:/program files/microchip/xc32/v2.40/bin/bin/../../lib/gcc/pic32mx/4.8.3/../../../../pic32mx/lib\libpic32.a(vector24.o)
 .bss           0x00000000        0x0 c:/program files/microchip/xc32/v2.40/bin/bin/../../lib/gcc/pic32mx/4.8.3/../../../../pic32mx/lib\libpic32.a(vector24.o)
 .reginfo       0x00000000       0x18 c:/program files/microchip/xc32/v2.40/bin/bin/../../lib/gcc/pic32mx/4.8.3/../../../../pic32mx/lib\libpic32.a(vector24.o)
 .text          0x00000000        0x0 c:/program files/microchip/xc32/v2.40/bin/bin/../../lib/gcc/pic32mx/4.8.3/../../../../pic32mx/lib\libpic32.a(vector25.o)
 .data          0x00000000        0x0 c:/program files/microchip/xc32/v2.40/bin/bin/../../lib/gcc/pic32mx/4.8.3/../../../../pic32mx/lib\libpic32.a(vector25.o)
 .bss           0x00000000        0x0 c:/program files/microchip/xc32/v2.40/bin/bin/../../lib/gcc/pic32mx/4.8.3/../../../../pic32mx/lib\libpic32.a(vector25.o)
 .reginfo       0x00000000       0x18 c:/program files/microchip/xc32/v2.40/bin/bin/../../lib/gcc/pic32mx/4.8.3/../../../../pic32mx/lib\libpic32.a(vector25.o)
 .text          0x00000000        0x0 c:/program files/microchip/xc32/v2.40/bin/bin/../../lib/gcc/pic32mx/4.8.3/../../../../pic32mx/lib\libpic32.a(vector26.o)
 .data          0x00000000        0x0 c:/program files/microchip/xc32/v2.40/bin/bin/../../lib/gcc/pic32mx/4.8.3/../../../../pic32mx/lib\libpic32.a(vector26.o)
 .bss           0x00000000        0x0 c:/program files/microchip/xc32/v2.40/bin/bin/../../lib/gcc/pic32mx/4.8.3/../../../../pic32mx/lib\libpic32.a(vector26.o)
 .reginfo       0x00000000       0x18 c:/program files/microchip/xc32/v2.40/bin/bin/../../lib/gcc/pic32mx/4.8.3/../../../../pic32mx/lib\libpic32.a(vector26.o)
 .text          0x00000000        0x0 c:/program files/microchip/xc32/v2.40/bin/bin/../../lib/gcc/pic32mx/4.8.3/../../../../pic32mx/lib\libpic32.a(vector27.o)
 .data          0x00000000        0x0 c:/program files/microchip/xc32/v2.40/bin/bin/../../lib/gcc/pic32mx/4.8.3/../../../../pic32mx/lib\libpic32.a(vector27.o)
 .bss           0x00000000        0x0 c:/program files/microchip/xc32/v2.40/bin/bin/../../lib/gcc/pic32mx/4.8.3/../../../../pic32mx/lib\libpic32.a(vector27.o)
 .reginfo       0x00000000       0x18 c:/program files/microchip/xc32/v2.40/bin/bin/../../lib/gcc/pic32mx/4.8.3/../../../../pic32mx/lib\libpic32.a(vector27.o)
 .text          0x00000000        0x0 c:/program files/microchip/xc32/v2.40/bin/bin/../../lib/gcc/pic32mx/4.8.3/../../../../pic32mx/lib\libpic32.a(vector28.o)
 .data          0x00000000        0x0 c:/program files/microchip/xc32/v2.40/bin/bin/../../lib/gcc/pic32mx/4.8.3/../../../../pic32mx/lib\libpic32.a(vector28.o)
 .bss           0x00000000        0x0 c:/program files/microchip/xc32/v2.40/bin/bin/../../lib/gcc/pic32mx/4.8.3/../../../../pic32mx/lib\libpic32.a(vector28.o)
 .reginfo       0x00000000       0x18 c:/program files/microchip/xc32/v2.40/bin/bin/../../lib/gcc/pic32mx/4.8.3/../../../../pic32mx/lib\libpic32.a(vector28.o)
 .text          0x00000000        0x0 c:/program files/microchip/xc32/v2.40/bin/bin/../../lib/gcc/pic32mx/4.8.3/../../../../pic32mx/lib\libpic32.a(vector29.o)
 .data          0x00000000        0x0 c:/program files/microchip/xc32/v2.40/bin/bin/../../lib/gcc/pic32mx/4.8.3/../../../../pic32mx/lib\libpic32.a(vector29.o)
 .bss           0x00000000        0x0 c:/program files/microchip/xc32/v2.40/bin/bin/../../lib/gcc/pic32mx/4.8.3/../../../../pic32mx/lib\libpic32.a(vector29.o)
 .reginfo       0x00000000       0x18 c:/program files/microchip/xc32/v2.40/bin/bin/../../lib/gcc/pic32mx/4.8.3/../../../../pic32mx/lib\libpic32.a(vector29.o)
 .text          0x00000000        0x0 c:/program files/microchip/xc32/v2.40/bin/bin/../../lib/gcc/pic32mx/4.8.3/../../../../pic32mx/lib\libpic32.a(vector30.o)
 .data          0x00000000        0x0 c:/program files/microchip/xc32/v2.40/bin/bin/../../lib/gcc/pic32mx/4.8.3/../../../../pic32mx/lib\libpic32.a(vector30.o)
 .bss           0x00000000        0x0 c:/program files/microchip/xc32/v2.40/bin/bin/../../lib/gcc/pic32mx/4.8.3/../../../../pic32mx/lib\libpic32.a(vector30.o)
 .reginfo       0x00000000       0x18 c:/program files/microchip/xc32/v2.40/bin/bin/../../lib/gcc/pic32mx/4.8.3/../../../../pic32mx/lib\libpic32.a(vector30.o)
 .text          0x00000000        0x0 c:/program files/microchip/xc32/v2.40/bin/bin/../../lib/gcc/pic32mx/4.8.3/../../../../pic32mx/lib\libpic32.a(vector31.o)
 .data          0x00000000        0x0 c:/program files/microchip/xc32/v2.40/bin/bin/../../lib/gcc/pic32mx/4.8.3/../../../../pic32mx/lib\libpic32.a(vector31.o)
 .bss           0x00000000        0x0 c:/program files/microchip/xc32/v2.40/bin/bin/../../lib/gcc/pic32mx/4.8.3/../../../../pic32mx/lib\libpic32.a(vector31.o)
 .reginfo       0x00000000       0x18 c:/program files/microchip/xc32/v2.40/bin/bin/../../lib/gcc/pic32mx/4.8.3/../../../../pic32mx/lib\libpic32.a(vector31.o)
 .text          0x00000000        0x0 c:/program files/microchip/xc32/v2.40/bin/bin/../../lib/gcc/pic32mx/4.8.3/../../../../pic32mx/lib\libpic32.a(vector32.o)
 .data          0x00000000        0x0 c:/program files/microchip/xc32/v2.40/bin/bin/../../lib/gcc/pic32mx/4.8.3/../../../../pic32mx/lib\libpic32.a(vector32.o)
 .bss           0x00000000        0x0 c:/program files/microchip/xc32/v2.40/bin/bin/../../lib/gcc/pic32mx/4.8.3/../../../../pic32mx/lib\libpic32.a(vector32.o)
 .reginfo       0x00000000       0x18 c:/program files/microchip/xc32/v2.40/bin/bin/../../lib/gcc/pic32mx/4.8.3/../../../../pic32mx/lib\libpic32.a(vector32.o)
 .text          0x00000000        0x0 c:/program files/microchip/xc32/v2.40/bin/bin/../../lib/gcc/pic32mx/4.8.3/../../../../pic32mx/lib\libpic32.a(vector33.o)
 .data          0x00000000        0x0 c:/program files/microchip/xc32/v2.40/bin/bin/../../lib/gcc/pic32mx/4.8.3/../../../../pic32mx/lib\libpic32.a(vector33.o)
 .bss           0x00000000        0x0 c:/program files/microchip/xc32/v2.40/bin/bin/../../lib/gcc/pic32mx/4.8.3/../../../../pic32mx/lib\libpic32.a(vector33.o)
 .reginfo       0x00000000       0x18 c:/program files/microchip/xc32/v2.40/bin/bin/../../lib/gcc/pic32mx/4.8.3/../../../../pic32mx/lib\libpic32.a(vector33.o)
 .text          0x00000000        0x0 c:/program files/microchip/xc32/v2.40/bin/bin/../../lib/gcc/pic32mx/4.8.3/../../../../pic32mx/lib\libpic32.a(vector34.o)
 .data          0x00000000        0x0 c:/program files/microchip/xc32/v2.40/bin/bin/../../lib/gcc/pic32mx/4.8.3/../../../../pic32mx/lib\libpic32.a(vector34.o)
 .bss           0x00000000        0x0 c:/program files/microchip/xc32/v2.40/bin/bin/../../lib/gcc/pic32mx/4.8.3/../../../../pic32mx/lib\libpic32.a(vector34.o)
 .reginfo       0x00000000       0x18 c:/program files/microchip/xc32/v2.40/bin/bin/../../lib/gcc/pic32mx/4.8.3/../../../../pic32mx/lib\libpic32.a(vector34.o)
 .text          0x00000000        0x0 c:/program files/microchip/xc32/v2.40/bin/bin/../../lib/gcc/pic32mx/4.8.3/../../../../pic32mx/lib\libpic32.a(vector35.o)
 .data          0x00000000        0x0 c:/program files/microchip/xc32/v2.40/bin/bin/../../lib/gcc/pic32mx/4.8.3/../../../../pic32mx/lib\libpic32.a(vector35.o)
 .bss           0x00000000        0x0 c:/program files/microchip/xc32/v2.40/bin/bin/../../lib/gcc/pic32mx/4.8.3/../../../../pic32mx/lib\libpic32.a(vector35.o)
 .reginfo       0x00000000       0x18 c:/program files/microchip/xc32/v2.40/bin/bin/../../lib/gcc/pic32mx/4.8.3/../../../../pic32mx/lib\libpic32.a(vector35.o)
 .text          0x00000000        0x0 c:/program files/microchip/xc32/v2.40/bin/bin/../../lib/gcc/pic32mx/4.8.3/../../../../pic32mx/lib\libpic32.a(vector36.o)
 .data          0x00000000        0x0 c:/program files/microchip/xc32/v2.40/bin/bin/../../lib/gcc/pic32mx/4.8.3/../../../../pic32mx/lib\libpic32.a(vector36.o)
 .bss           0x00000000        0x0 c:/program files/microchip/xc32/v2.40/bin/bin/../../lib/gcc/pic32mx/4.8.3/../../../../pic32mx/lib\libpic32.a(vector36.o)
 .reginfo       0x00000000       0x18 c:/program files/microchip/xc32/v2.40/bin/bin/../../lib/gcc/pic32mx/4.8.3/../../../../pic32mx/lib\libpic32.a(vector36.o)
 .text          0x00000000        0x0 c:/program files/microchip/xc32/v2.40/bin/bin/../../lib/gcc/pic32mx/4.8.3/../../../../pic32mx/lib\libpic32.a(vector37.o)
 .data          0x00000000        0x0 c:/program files/microchip/xc32/v2.40/bin/bin/../../lib/gcc/pic32mx/4.8.3/../../../../pic32mx/lib\libpic32.a(vector37.o)
 .bss           0x00000000        0x0 c:/program files/microchip/xc32/v2.40/bin/bin/../../lib/gcc/pic32mx/4.8.3/../../../../pic32mx/lib\libpic32.a(vector37.o)
 .reginfo       0x00000000       0x18 c:/program files/microchip/xc32/v2.40/bin/bin/../../lib/gcc/pic32mx/4.8.3/../../../../pic32mx/lib\libpic32.a(vector37.o)
 .text          0x00000000        0x0 c:/program files/microchip/xc32/v2.40/bin/bin/../../lib/gcc/pic32mx/4.8.3/../../../../pic32mx/lib\libpic32.a(vector38.o)
 .data          0x00000000        0x0 c:/program files/microchip/xc32/v2.40/bin/bin/../../lib/gcc/pic32mx/4.8.3/../../../../pic32mx/lib\libpic32.a(vector38.o)
 .bss           0x00000000        0x0 c:/program files/microchip/xc32/v2.40/bin/bin/../../lib/gcc/pic32mx/4.8.3/../../../../pic32mx/lib\libpic32.a(vector38.o)
 .reginfo       0x00000000       0x18 c:/program files/microchip/xc32/v2.40/bin/bin/../../lib/gcc/pic32mx/4.8.3/../../../../pic32mx/lib\libpic32.a(vector38.o)
 .text          0x00000000        0x0 c:/program files/microchip/xc32/v2.40/bin/bin/../../lib/gcc/pic32mx/4.8.3/../../../../pic32mx/lib\libpic32.a(vector39.o)
 .data          0x00000000        0x0 c:/program files/microchip/xc32/v2.40/bin/bin/../../lib/gcc/pic32mx/4.8.3/../../../../pic32mx/lib\libpic32.a(vector39.o)
 .bss           0x00000000        0x0 c:/program files/microchip/xc32/v2.40/bin/bin/../../lib/gcc/pic32mx/4.8.3/../../../../pic32mx/lib\libpic32.a(vector39.o)
 .reginfo       0x00000000       0x18 c:/program files/microchip/xc32/v2.40/bin/bin/../../lib/gcc/pic32mx/4.8.3/../../../../pic32mx/lib\libpic32.a(vector39.o)
 .text          0x00000000        0x0 c:/program files/microchip/xc32/v2.40/bin/bin/../../lib/gcc/pic32mx/4.8.3/../../../../pic32mx/lib\libpic32.a(vector40.o)
 .data          0x00000000        0x0 c:/program files/microchip/xc32/v2.40/bin/bin/../../lib/gcc/pic32mx/4.8.3/../../../../pic32mx/lib\libpic32.a(vector40.o)
 .bss           0x00000000        0x0 c:/program files/microchip/xc32/v2.40/bin/bin/../../lib/gcc/pic32mx/4.8.3/../../../../pic32mx/lib\libpic32.a(vector40.o)
 .reginfo       0x00000000       0x18 c:/program files/microchip/xc32/v2.40/bin/bin/../../lib/gcc/pic32mx/4.8.3/../../../../pic32mx/lib\libpic32.a(vector40.o)
 .text          0x00000000        0x0 c:/program files/microchip/xc32/v2.40/bin/bin/../../lib/gcc/pic32mx/4.8.3/../../../../pic32mx/lib\libpic32.a(vector41.o)
 .data          0x00000000        0x0 c:/program files/microchip/xc32/v2.40/bin/bin/../../lib/gcc/pic32mx/4.8.3/../../../../pic32mx/lib\libpic32.a(vector41.o)
 .bss           0x00000000        0x0 c:/program files/microchip/xc32/v2.40/bin/bin/../../lib/gcc/pic32mx/4.8.3/../../../../pic32mx/lib\libpic32.a(vector41.o)
 .reginfo       0x00000000       0x18 c:/program files/microchip/xc32/v2.40/bin/bin/../../lib/gcc/pic32mx/4.8.3/../../../../pic32mx/lib\libpic32.a(vector41.o)
 .text          0x00000000        0x0 c:/program files/microchip/xc32/v2.40/bin/bin/../../lib/gcc/pic32mx/4.8.3/../../../../pic32mx/lib\libpic32.a(vector42.o)
 .data          0x00000000        0x0 c:/program files/microchip/xc32/v2.40/bin/bin/../../lib/gcc/pic32mx/4.8.3/../../../../pic32mx/lib\libpic32.a(vector42.o)
 .bss           0x00000000        0x0 c:/program files/microchip/xc32/v2.40/bin/bin/../../lib/gcc/pic32mx/4.8.3/../../../../pic32mx/lib\libpic32.a(vector42.o)
 .reginfo       0x00000000       0x18 c:/program files/microchip/xc32/v2.40/bin/bin/../../lib/gcc/pic32mx/4.8.3/../../../../pic32mx/lib\libpic32.a(vector42.o)
 .text          0x00000000        0x0 c:/program files/microchip/xc32/v2.40/bin/bin/../../lib/gcc/pic32mx/4.8.3/../../../../pic32mx/lib\libpic32.a(vector43.o)
 .data          0x00000000        0x0 c:/program files/microchip/xc32/v2.40/bin/bin/../../lib/gcc/pic32mx/4.8.3/../../../../pic32mx/lib\libpic32.a(vector43.o)
 .bss           0x00000000        0x0 c:/program files/microchip/xc32/v2.40/bin/bin/../../lib/gcc/pic32mx/4.8.3/../../../../pic32mx/lib\libpic32.a(vector43.o)
 .reginfo       0x00000000       0x18 c:/program files/microchip/xc32/v2.40/bin/bin/../../lib/gcc/pic32mx/4.8.3/../../../../pic32mx/lib\libpic32.a(vector43.o)
 .text          0x00000000        0x0 c:/program files/microchip/xc32/v2.40/bin/bin/../../lib/gcc/pic32mx/4.8.3/../../../../pic32mx/lib\libpic32.a(vector44.o)
 .data          0x00000000        0x0 c:/program files/microchip/xc32/v2.40/bin/bin/../../lib/gcc/pic32mx/4.8.3/../../../../pic32mx/lib\libpic32.a(vector44.o)
 .bss           0x00000000        0x0 c:/program files/microchip/xc32/v2.40/bin/bin/../../lib/gcc/pic32mx/4.8.3/../../../../pic32mx/lib\libpic32.a(vector44.o)
 .reginfo       0x00000000       0x18 c:/program files/microchip/xc32/v2.40/bin/bin/../../lib/gcc/pic32mx/4.8.3/../../../../pic32mx/lib\libpic32.a(vector44.o)
 .text          0x00000000        0x0 c:/program files/microchip/xc32/v2.40/bin/bin/../../lib/gcc/pic32mx/4.8.3/../../../../pic32mx/lib\libpic32.a(vector46.o)
 .data          0x00000000        0x0 c:/program files/microchip/xc32/v2.40/bin/bin/../../lib/gcc/pic32mx/4.8.3/../../../../pic32mx/lib\libpic32.a(vector46.o)
 .bss           0x00000000        0x0 c:/program files/microchip/xc32/v2.40/bin/bin/../../lib/gcc/pic32mx/4.8.3/../../../../pic32mx/lib\libpic32.a(vector46.o)
 .reginfo       0x00000000       0x18 c:/program files/microchip/xc32/v2.40/bin/bin/../../lib/gcc/pic32mx/4.8.3/../../../../pic32mx/lib\libpic32.a(vector46.o)
 .text          0x00000000        0x0 c:/program files/microchip/xc32/v2.40/bin/bin/../../lib/gcc/pic32mx/4.8.3/../../../../pic32mx/lib\libpic32.a(vector47.o)
 .data          0x00000000        0x0 c:/program files/microchip/xc32/v2.40/bin/bin/../../lib/gcc/pic32mx/4.8.3/../../../../pic32mx/lib\libpic32.a(vector47.o)
 .bss           0x00000000        0x0 c:/program files/microchip/xc32/v2.40/bin/bin/../../lib/gcc/pic32mx/4.8.3/../../../../pic32mx/lib\libpic32.a(vector47.o)
 .reginfo       0x00000000       0x18 c:/program files/microchip/xc32/v2.40/bin/bin/../../lib/gcc/pic32mx/4.8.3/../../../../pic32mx/lib\libpic32.a(vector47.o)
 .text          0x00000000        0x0 c:/program files/microchip/xc32/v2.40/bin/bin/../../lib/gcc/pic32mx/4.8.3/../../../../pic32mx/lib\libpic32.a(vector48.o)
 .data          0x00000000        0x0 c:/program files/microchip/xc32/v2.40/bin/bin/../../lib/gcc/pic32mx/4.8.3/../../../../pic32mx/lib\libpic32.a(vector48.o)
 .bss           0x00000000        0x0 c:/program files/microchip/xc32/v2.40/bin/bin/../../lib/gcc/pic32mx/4.8.3/../../../../pic32mx/lib\libpic32.a(vector48.o)
 .reginfo       0x00000000       0x18 c:/program files/microchip/xc32/v2.40/bin/bin/../../lib/gcc/pic32mx/4.8.3/../../../../pic32mx/lib\libpic32.a(vector48.o)
 .text          0x00000000        0x0 c:/program files/microchip/xc32/v2.40/bin/bin/../../lib/gcc/pic32mx/4.8.3/../../../../pic32mx/lib\libpic32.a(vector49.o)
 .data          0x00000000        0x0 c:/program files/microchip/xc32/v2.40/bin/bin/../../lib/gcc/pic32mx/4.8.3/../../../../pic32mx/lib\libpic32.a(vector49.o)
 .bss           0x00000000        0x0 c:/program files/microchip/xc32/v2.40/bin/bin/../../lib/gcc/pic32mx/4.8.3/../../../../pic32mx/lib\libpic32.a(vector49.o)
 .reginfo       0x00000000       0x18 c:/program files/microchip/xc32/v2.40/bin/bin/../../lib/gcc/pic32mx/4.8.3/../../../../pic32mx/lib\libpic32.a(vector49.o)
 .text          0x00000000        0x0 c:/program files/microchip/xc32/v2.40/bin/bin/../../lib/gcc/pic32mx/4.8.3/../../../../pic32mx/lib\libpic32.a(vector50.o)
 .data          0x00000000        0x0 c:/program files/microchip/xc32/v2.40/bin/bin/../../lib/gcc/pic32mx/4.8.3/../../../../pic32mx/lib\libpic32.a(vector50.o)
 .bss           0x00000000        0x0 c:/program files/microchip/xc32/v2.40/bin/bin/../../lib/gcc/pic32mx/4.8.3/../../../../pic32mx/lib\libpic32.a(vector50.o)
 .reginfo       0x00000000       0x18 c:/program files/microchip/xc32/v2.40/bin/bin/../../lib/gcc/pic32mx/4.8.3/../../../../pic32mx/lib\libpic32.a(vector50.o)
 .text          0x00000000        0x0 c:/program files/microchip/xc32/v2.40/bin/bin/../../lib/gcc/pic32mx/4.8.3/../../../../pic32mx/lib\libpic32.a(vector51.o)
 .data          0x00000000        0x0 c:/program files/microchip/xc32/v2.40/bin/bin/../../lib/gcc/pic32mx/4.8.3/../../../../pic32mx/lib\libpic32.a(vector51.o)
 .bss           0x00000000        0x0 c:/program files/microchip/xc32/v2.40/bin/bin/../../lib/gcc/pic32mx/4.8.3/../../../../pic32mx/lib\libpic32.a(vector51.o)
 .reginfo       0x00000000       0x18 c:/program files/microchip/xc32/v2.40/bin/bin/../../lib/gcc/pic32mx/4.8.3/../../../../pic32mx/lib\libpic32.a(vector51.o)
 .text          0x00000000        0x0 c:/program files/microchip/xc32/v2.40/bin/bin/../../lib/gcc/pic32mx/4.8.3/../../../../pic32mx/lib\libpic32.a(defaultinterrupt.o)
 .data          0x00000000        0x0 c:/program files/microchip/xc32/v2.40/bin/bin/../../lib/gcc/pic32mx/4.8.3/../../../../pic32mx/lib\libpic32.a(defaultinterrupt.o)
 .bss           0x00000000        0x0 c:/program files/microchip/xc32/v2.40/bin/bin/../../lib/gcc/pic32mx/4.8.3/../../../../pic32mx/lib\libpic32.a(defaultinterrupt.o)
 .reginfo       0x00000000       0x18 c:/program files/microchip/xc32/v2.40/bin/bin/../../lib/gcc/pic32mx/4.8.3/../../../../pic32mx/lib\libpic32.a(defaultinterrupt.o)
 .text          0x00000000        0x0 c:/program files/microchip/xc32/v2.40/bin/bin/../../lib/gcc/pic32mx/4.8.3/../../../../pic32mx/lib\libc.a(malloc.o)
 .data          0x00000000        0x0 c:/program files/microchip/xc32/v2.40/bin/bin/../../lib/gcc/pic32mx/4.8.3/../../../../pic32mx/lib\libc.a(malloc.o)
 .reginfo       0x00000000       0x18 c:/program files/microchip/xc32/v2.40/bin/bin/../../lib/gcc/pic32mx/4.8.3/../../../../pic32mx/lib\libc.a(malloc.o)
 .text.realloc  0x00000000      0x148 c:/program files/microchip/xc32/v2.40/bin/bin/../../lib/gcc/pic32mx/4.8.3/../../../../pic32mx/lib\libc.a(malloc.o)
 .text          0x00000000        0x0 c:/program files/microchip/xc32/v2.40/bin/bin/../../lib/gcc/pic32mx/4.8.3/../../../../pic32mx/lib\libc.a(strncmp.o)
 .data          0x00000000        0x0 c:/program files/microchip/xc32/v2.40/bin/bin/../../lib/gcc/pic32mx/4.8.3/../../../../pic32mx/lib\libc.a(strncmp.o)
 .bss           0x00000000        0x0 c:/program files/microchip/xc32/v2.40/bin/bin/../../lib/gcc/pic32mx/4.8.3/../../../../pic32mx/lib\libc.a(strncmp.o)
 .reginfo       0x00000000       0x18 c:/program files/microchip/xc32/v2.40/bin/bin/../../lib/gcc/pic32mx/4.8.3/../../../../pic32mx/lib\libc.a(strncmp.o)
 .text          0x00000000        0x0 c:/program files/microchip/xc32/v2.40/bin/bin/../../lib/gcc/pic32mx/4.8.3/../../../../pic32mx/lib\libc.a(strncpy.o)
 .data          0x00000000        0x0 c:/program files/microchip/xc32/v2.40/bin/bin/../../lib/gcc/pic32mx/4.8.3/../../../../pic32mx/lib\libc.a(strncpy.o)
 .bss           0x00000000        0x0 c:/program files/microchip/xc32/v2.40/bin/bin/../../lib/gcc/pic32mx/4.8.3/../../../../pic32mx/lib\libc.a(strncpy.o)
 .reginfo       0x00000000       0x18 c:/program files/microchip/xc32/v2.40/bin/bin/../../lib/gcc/pic32mx/4.8.3/../../../../pic32mx/lib\libc.a(strncpy.o)
 .text          0x00000000        0x0 c:/program files/microchip/xc32/v2.40/bin/bin/../../lib/gcc/pic32mx/4.8.3/../../../../pic32mx/lib\libc.a(printf_s.eo)
 .data          0x00000000        0x0 c:/program files/microchip/xc32/v2.40/bin/bin/../../lib/gcc/pic32mx/4.8.3/../../../../pic32mx/lib\libc.a(printf_s.eo)
 .bss           0x00000000        0x0 c:/program files/microchip/xc32/v2.40/bin/bin/../../lib/gcc/pic32mx/4.8.3/../../../../pic32mx/lib\libc.a(printf_s.eo)
 .reginfo       0x00000000       0x18 c:/program files/microchip/xc32/v2.40/bin/bin/../../lib/gcc/pic32mx/4.8.3/../../../../pic32mx/lib\libc.a(printf_s.eo)
 .text          0x00000000        0x0 c:/program files/microchip/xc32/v2.40/bin/bin/../../lib/gcc/pic32mx/4.8.3/../../../../pic32mx/lib\libc.a(_iob.o)
 .reginfo       0x00000000       0x18 c:/program files/microchip/xc32/v2.40/bin/bin/../../lib/gcc/pic32mx/4.8.3/../../../../pic32mx/lib\libc.a(_iob.o)
 .text          0x00000000        0x0 c:/program files/microchip/xc32/v2.40/bin/bin/../../lib/gcc/pic32mx/4.8.3/../../../../pic32mx/lib\libc.a(doprnt_s.eo)
 .data          0x00000000        0x0 c:/program files/microchip/xc32/v2.40/bin/bin/../../lib/gcc/pic32mx/4.8.3/../../../../pic32mx/lib\libc.a(doprnt_s.eo)
 .bss           0x00000000        0x0 c:/program files/microchip/xc32/v2.40/bin/bin/../../lib/gcc/pic32mx/4.8.3/../../../../pic32mx/lib\libc.a(doprnt_s.eo)
 .reginfo       0x00000000       0x18 c:/program files/microchip/xc32/v2.40/bin/bin/../../lib/gcc/pic32mx/4.8.3/../../../../pic32mx/lib\libc.a(doprnt_s.eo)
 .text          0x00000000        0x0 c:/program files/microchip/xc32/v2.40/bin/bin/../../lib/gcc/pic32mx/4.8.3/../../../../pic32mx/lib\libc.a(_fputc_simple.o)
 .data          0x00000000        0x0 c:/program files/microchip/xc32/v2.40/bin/bin/../../lib/gcc/pic32mx/4.8.3/../../../../pic32mx/lib\libc.a(_fputc_simple.o)
 .bss           0x00000000        0x0 c:/program files/microchip/xc32/v2.40/bin/bin/../../lib/gcc/pic32mx/4.8.3/../../../../pic32mx/lib\libc.a(_fputc_simple.o)
 .reginfo       0x00000000       0x18 c:/program files/microchip/xc32/v2.40/bin/bin/../../lib/gcc/pic32mx/4.8.3/../../../../pic32mx/lib\libc.a(_fputc_simple.o)
 .text          0x00000000        0x0 c:/program files/microchip/xc32/v2.40/bin/bin/../../lib/gcc/pic32mx/4.8.3/../../../../pic32mx/lib\libc.a(ctype.o)
 .data          0x00000000        0x0 c:/program files/microchip/xc32/v2.40/bin/bin/../../lib/gcc/pic32mx/4.8.3/../../../../pic32mx/lib\libc.a(ctype.o)
 .bss           0x00000000        0x0 c:/program files/microchip/xc32/v2.40/bin/bin/../../lib/gcc/pic32mx/4.8.3/../../../../pic32mx/lib\libc.a(ctype.o)
 .reginfo       0x00000000       0x18 c:/program files/microchip/xc32/v2.40/bin/bin/../../lib/gcc/pic32mx/4.8.3/../../../../pic32mx/lib\libc.a(ctype.o)
 .text          0x00000000        0x0 c:/program files/microchip/xc32/v2.40/bin/bin/../../lib/gcc/pic32mx/4.8.3/../../../../pic32mx/lib\libc.a(_flsbuf_simple.o)
 .data          0x00000000        0x0 c:/program files/microchip/xc32/v2.40/bin/bin/../../lib/gcc/pic32mx/4.8.3/../../../../pic32mx/lib\libc.a(_flsbuf_simple.o)
 .bss           0x00000000        0x0 c:/program files/microchip/xc32/v2.40/bin/bin/../../lib/gcc/pic32mx/4.8.3/../../../../pic32mx/lib\libc.a(_flsbuf_simple.o)
 .reginfo       0x00000000       0x18 c:/program files/microchip/xc32/v2.40/bin/bin/../../lib/gcc/pic32mx/4.8.3/../../../../pic32mx/lib\libc.a(_flsbuf_simple.o)
 .data          0x00000000        0x0 c:/program files/microchip/xc32/v2.40/bin/bin/../../lib/gcc/pic32mx/4.8.3\libgcc.a(_umoddi3.o)
 .bss           0x00000000        0x0 c:/program files/microchip/xc32/v2.40/bin/bin/../../lib/gcc/pic32mx/4.8.3\libgcc.a(_umoddi3.o)
 .reginfo       0x00000000       0x18 c:/program files/microchip/xc32/v2.40/bin/bin/../../lib/gcc/pic32mx/4.8.3\libgcc.a(_umoddi3.o)
 .text          0x00000000        0x0 c:/program files/microchip/xc32/v2.40/bin/bin/../../lib/gcc/pic32mx/4.8.3/../../../../pic32mx/lib\libpic32.a(sbrk.o)
 .data          0x00000000        0x0 c:/program files/microchip/xc32/v2.40/bin/bin/../../lib/gcc/pic32mx/4.8.3/../../../../pic32mx/lib\libpic32.a(sbrk.o)
 .reginfo       0x00000000       0x18 c:/program files/microchip/xc32/v2.40/bin/bin/../../lib/gcc/pic32mx/4.8.3/../../../../pic32mx/lib\libpic32.a(sbrk.o)
 .text.getpagesize
                0x00000000        0x8 c:/program files/microchip/xc32/v2.40/bin/bin/../../lib/gcc/pic32mx/4.8.3/../../../../pic32mx/lib\libpic32.a(sbrk.o)
 .text          0x00000000        0x0 c:/program files/microchip/xc32/v2.40/bin/bin/../../lib/gcc/pic32mx/4.8.3/../../../../pic32mx/lib\libpic32.a(write.o)
 .data          0x00000000        0x0 c:/program files/microchip/xc32/v2.40/bin/bin/../../lib/gcc/pic32mx/4.8.3/../../../../pic32mx/lib\libpic32.a(write.o)
 .bss           0x00000000        0x0 c:/program files/microchip/xc32/v2.40/bin/bin/../../lib/gcc/pic32mx/4.8.3/../../../../pic32mx/lib\libpic32.a(write.o)
 .reginfo       0x00000000       0x18 c:/program files/microchip/xc32/v2.40/bin/bin/../../lib/gcc/pic32mx/4.8.3/../../../../pic32mx/lib\libpic32.a(write.o)
 .text          0x00000000        0x0 c:/program files/microchip/xc32/v2.40/bin/bin/../../lib/gcc/pic32mx/4.8.3/../../../../pic32mx/lib\libpic32.a(errno.o)
 .data          0x00000000        0x0 c:/program files/microchip/xc32/v2.40/bin/bin/../../lib/gcc/pic32mx/4.8.3/../../../../pic32mx/lib\libpic32.a(errno.o)
 .bss           0x00000000        0x0 c:/program files/microchip/xc32/v2.40/bin/bin/../../lib/gcc/pic32mx/4.8.3/../../../../pic32mx/lib\libpic32.a(errno.o)
 .reginfo       0x00000000       0x18 c:/program files/microchip/xc32/v2.40/bin/bin/../../lib/gcc/pic32mx/4.8.3/../../../../pic32mx/lib\libpic32.a(errno.o)
 .text          0x00000000        0x0 c:/program files/microchip/xc32/v2.40/bin/bin/../../lib/gcc/pic32mx/4.8.3/../../../../pic32mx/lib\libpic32.a(_mon_putc.o)
 .data          0x00000000        0x0 c:/program files/microchip/xc32/v2.40/bin/bin/../../lib/gcc/pic32mx/4.8.3/../../../../pic32mx/lib\libpic32.a(_mon_putc.o)
 .bss           0x00000000        0x0 c:/program files/microchip/xc32/v2.40/bin/bin/../../lib/gcc/pic32mx/4.8.3/../../../../pic32mx/lib\libpic32.a(_mon_putc.o)
 .reginfo       0x00000000       0x18 c:/program files/microchip/xc32/v2.40/bin/bin/../../lib/gcc/pic32mx/4.8.3/../../../../pic32mx/lib\libpic32.a(_mon_putc.o)
 .text          0x00000000        0x0 c:/program files/microchip/xc32/v2.40/bin/bin/../../lib/gcc/pic32mx/4.8.3/../../../../pic32mx/lib\libpic32.a(xc32_uart.o)
 .data          0x00000000        0x0 c:/program files/microchip/xc32/v2.40/bin/bin/../../lib/gcc/pic32mx/4.8.3/../../../../pic32mx/lib\libpic32.a(xc32_uart.o)
 .bss           0x00000000        0x0 c:/program files/microchip/xc32/v2.40/bin/bin/../../lib/gcc/pic32mx/4.8.3/../../../../pic32mx/lib\libpic32.a(xc32_uart.o)
 .reginfo       0x00000000       0x18 c:/program files/microchip/xc32/v2.40/bin/bin/../../lib/gcc/pic32mx/4.8.3/../../../../pic32mx/lib\libpic32.a(xc32_uart.o)

Memory Configuration

Name             Origin             Length             Attributes
kseg0_program_mem 0x9d000000         0x00080000         xr
kseg0_boot_mem   0x9fc00490         0x00000970
exception_mem    0x9fc01000         0x00001000
kseg1_boot_mem   0xbfc00000         0x00000490
debug_exec_mem   0xbfc02000         0x00000ff0
config3          0xbfc02ff0         0x00000004
config2          0xbfc02ff4         0x00000004
config1          0xbfc02ff8         0x00000004
config0          0xbfc02ffc         0x00000004
kseg1_data_mem   0xa0000000         0x00020000         w !x
sfrs             0xbf800000         0x00100000
configsfrs       0xbfc02ff0         0x00000010
*default*        0x00000000         0xffffffff

Linker script and memory map

LOAD c:/program files/microchip/xc32/v2.40/bin/bin/../../lib/gcc/pic32mx/4.8.3/../../../../pic32mx/lib\debug-exception-return.o
LOAD build/default/production/_ext/1360937237/app.o
LOAD build/default/production/_ext/1360937237/main.o
LOAD build/default/production/_ext/1475996069/drv_tmr.o
LOAD build/default/production/_ext/2105109636/sys_fs.o
LOAD build/default/production/_ext/2105109636/sys_fs_media_manager.o
LOAD build/default/production/_ext/312387365/ff.o
LOAD build/default/production/_ext/456076708/diskio.o
LOAD build/default/production/_ext/1020727214/sys_int_pic32.o
LOAD build/default/production/_ext/121402492/sys_tmr.o
LOAD build/default/production/_ext/1150371026/drv_usbfs.o
LOAD build/default/production/_ext/1699675045/usb_host.o
LOAD build/default/production/_ext/1150371026/drv_usbfs_host.o
LOAD build/default/production/_ext/1699675045/usb_host_msd.o
LOAD build/default/production/_ext/1699675045/usb_host_scsi.o
LOAD build/default/production/_ext/639803181/sys_clk_pic32mx.o
LOAD build/default/production/_ext/340578644/sys_devcon.o
LOAD build/default/production/_ext/340578644/sys_devcon_pic32mx.o
LOAD build/default/production/_ext/822048611/sys_ports_static.o
LOAD build/default/production/_ext/74298950/bsp.o
LOAD build/default/production/_ext/1688732426/system_init.o
LOAD build/default/production/_ext/1688732426/system_interrupt.o
LOAD build/default/production/_ext/1688732426/system_exceptions.o
LOAD build/default/production/_ext/1688732426/system_tasks.o
LOAD ..\..\..\..\..\..\..\microchip\harmony\v2_06\bin\framework\peripheral\PIC32MX795F512L_peripherals.a
                0x00000001                __MPLAB_BUILD = 0x1
                0x000001f4                _min_heap_size = 0x1f4
LOAD C:\Users\Booo_kat\AppData\Local\Temp\cc6Zd3pF.o
LOAD C:\Users\Booo_kat\AppData\Local\Temp\ccxX2RaR.o
LOAD C:\Users\Booo_kat\AppData\Local\Temp\cc0xT7Bt.o
LOAD c:/program files/microchip/xc32/v2.40/bin/bin/../../lib/gcc/pic32mx/4.8.3/../../../../pic32mx/lib\pic32_software_reset.o
                0x00000400                PROVIDE (_min_stack_size, 0x400)
START GROUP
LOAD c:/program files/microchip/xc32/v2.40/bin/bin/../../lib/gcc/pic32mx/4.8.3/../../../../pic32mx/lib/./proc/32MX795F512L\processor.o
END GROUP
START GROUP
LOAD libmchp_peripheral.a
END GROUP
START GROUP
LOAD libmchp_peripheral_32MX795F512L.a
END GROUP
                0x00000001                PROVIDE (_vector_spacing, 0x1)
                0x9fc01000                PROVIDE (_ebase_address, 0x9fc01000)
                0xbfc00000                _RESET_ADDR = 0xbfc00000
                0xbfc00380                _BEV_EXCPT_ADDR = 0xbfc00380
                0xbfc00480                _DBG_EXCPT_ADDR = 0xbfc00480
                0xbfc02000                _DBG_CODE_ADDR = 0xbfc02000
                0x00000ff0                _DBG_CODE_SIZE = 0xff0
                0x9fc01180                _GEN_EXCPT_ADDR = (_ebase_address + 0x180)

.config_BFC02FF0
                0xbfc02ff0        0x4
 *(.config_BFC02FF0)
 .config_BFC02FF0
                0xbfc02ff0        0x4 build/default/production/_ext/1688732426/system_init.o

.config_BFC02FF4
                0xbfc02ff4        0x4
 *(.config_BFC02FF4)
 .config_BFC02FF4
                0xbfc02ff4        0x4 build/default/production/_ext/1688732426/system_init.o

.config_BFC02FF8
                0xbfc02ff8        0x4
 *(.config_BFC02FF8)
 .config_BFC02FF8
                0xbfc02ff8        0x4 build/default/production/_ext/1688732426/system_init.o

.config_BFC02FFC
                0xbfc02ffc        0x4
 *(.config_BFC02FFC)
 .config_BFC02FFC
                0xbfc02ffc        0x4 build/default/production/_ext/1688732426/system_init.o
                0xbfc02000                PROVIDE (_DBG_CODE_ADDR, 0xbfc02000)
                0x00000ff0                PROVIDE (_DBG_CODE_SIZE, 0xff0)

.reset          0xbfc00000      0x19c
 *(.reset)
 .reset         0xbfc00000        0x8 C:\Users\Booo_kat\AppData\Local\Temp\cc6Zd3pF.o
                0xbfc00000                _reset
 *(.reset.startup)
 .reset.startup
                0xbfc00008      0x194 C:\Users\Booo_kat\AppData\Local\Temp\cc6Zd3pF.o
                0xbfc00008                _startup

.bev_excpt      0xbfc00380       0x10
 *(.bev_handler)
 .bev_handler   0xbfc00380       0x10 C:\Users\Booo_kat\AppData\Local\Temp\cc6Zd3pF.o

.dbg_excpt      0xbfc00480        0x0
                0xbfc00480                . = (. + DEFINED (_DEBUGGER)?0x8:0x0)

.dbg_code       0xbfc02000        0x0
                0xbfc02000                . = (. + DEFINED (_DEBUGGER)?_DBG_CODE_SIZE:0x0)

.app_excpt      0x9fc01180       0x10
 *(.gen_handler)
 .gen_handler   0x9fc01180       0x10 C:\Users\Booo_kat\AppData\Local\Temp\cc6Zd3pF.o

.vector_0       0x9fc01200        0x8
 *(.vector_0)
 .vector_0      0x9fc01200        0x8 c:/program files/microchip/xc32/v2.40/bin/bin/../../lib/gcc/pic32mx/4.8.3/../../../../pic32mx/lib\libpic32.a(vector0.o)
                0x9fc01200                __vector_dispatch_0
                0x00000001                ASSERT (((_vector_spacing == 0x0) || (SIZEOF (.vector_0) <= (_vector_spacing << 0x5))), function at exception vector 0 too large)

.vector_1       0x9fc01220        0x8
 *(.vector_1)
 .vector_1      0x9fc01220        0x8 c:/program files/microchip/xc32/v2.40/bin/bin/../../lib/gcc/pic32mx/4.8.3/../../../../pic32mx/lib\libpic32.a(vector1.o)
                0x9fc01220                __vector_dispatch_1
                0x00000001                ASSERT (((_vector_spacing == 0x0) || (SIZEOF (.vector_1) <= (_vector_spacing << 0x5))), function at exception vector 1 too large)

.vector_2       0x9fc01240        0x8
 *(.vector_2)
 .vector_2      0x9fc01240        0x8 c:/program files/microchip/xc32/v2.40/bin/bin/../../lib/gcc/pic32mx/4.8.3/../../../../pic32mx/lib\libpic32.a(vector2.o)
                0x9fc01240                __vector_dispatch_2
                0x00000001                ASSERT (((_vector_spacing == 0x0) || (SIZEOF (.vector_2) <= (_vector_spacing << 0x5))), function at exception vector 2 too large)

.vector_3       0x9fc01260        0x8
 *(.vector_3)
 .vector_3      0x9fc01260        0x8 c:/program files/microchip/xc32/v2.40/bin/bin/../../lib/gcc/pic32mx/4.8.3/../../../../pic32mx/lib\libpic32.a(vector3.o)
                0x9fc01260                __vector_dispatch_3
                0x00000001                ASSERT (((_vector_spacing == 0x0) || (SIZEOF (.vector_3) <= (_vector_spacing << 0x5))), function at exception vector 3 too large)

.vector_4       0x9fc01280        0x8
 *(.vector_4)
 .vector_4      0x9fc01280        0x8 build/default/production/_ext/1688732426/system_interrupt.o
                0x9fc01280                __vector_dispatch_4
                0x00000001                ASSERT (((_vector_spacing == 0x0) || (SIZEOF (.vector_4) <= (_vector_spacing << 0x5))), function at exception vector 4 too large)

.vector_5       0x9fc012a0        0x8
 *(.vector_5)
 .vector_5      0x9fc012a0        0x8 c:/program files/microchip/xc32/v2.40/bin/bin/../../lib/gcc/pic32mx/4.8.3/../../../../pic32mx/lib\libpic32.a(vector5.o)
                0x9fc012a0                __vector_dispatch_5
                0x00000001                ASSERT (((_vector_spacing == 0x0) || (SIZEOF (.vector_5) <= (_vector_spacing << 0x5))), function at exception vector 5 too large)

.vector_6       0x9fc012c0        0x8
 *(.vector_6)
 .vector_6      0x9fc012c0        0x8 c:/program files/microchip/xc32/v2.40/bin/bin/../../lib/gcc/pic32mx/4.8.3/../../../../pic32mx/lib\libpic32.a(vector6.o)
                0x9fc012c0                __vector_dispatch_6
                0x00000001                ASSERT (((_vector_spacing == 0x0) || (SIZEOF (.vector_6) <= (_vector_spacing << 0x5))), function at exception vector 6 too large)

.vector_7       0x9fc012e0        0x8
 *(.vector_7)
 .vector_7      0x9fc012e0        0x8 c:/program files/microchip/xc32/v2.40/bin/bin/../../lib/gcc/pic32mx/4.8.3/../../../../pic32mx/lib\libpic32.a(vector7.o)
                0x9fc012e0                __vector_dispatch_7
                0x00000001                ASSERT (((_vector_spacing == 0x0) || (SIZEOF (.vector_7) <= (_vector_spacing << 0x5))), function at exception vector 7 too large)

.vector_8       0x9fc01300        0x8
 *(.vector_8)
 .vector_8      0x9fc01300        0x8 c:/program files/microchip/xc32/v2.40/bin/bin/../../lib/gcc/pic32mx/4.8.3/../../../../pic32mx/lib\libpic32.a(vector8.o)
                0x9fc01300                __vector_dispatch_8
                0x00000001                ASSERT (((_vector_spacing == 0x0) || (SIZEOF (.vector_8) <= (_vector_spacing << 0x5))), function at exception vector 8 too large)

.vector_9       0x9fc01320        0x8
 *(.vector_9)
 .vector_9      0x9fc01320        0x8 c:/program files/microchip/xc32/v2.40/bin/bin/../../lib/gcc/pic32mx/4.8.3/../../../../pic32mx/lib\libpic32.a(vector9.o)
                0x9fc01320                __vector_dispatch_9
                0x00000001                ASSERT (((_vector_spacing == 0x0) || (SIZEOF (.vector_9) <= (_vector_spacing << 0x5))), function at exception vector 9 too large)

.vector_10      0x9fc01340        0x8
 *(.vector_10)
 .vector_10     0x9fc01340        0x8 c:/program files/microchip/xc32/v2.40/bin/bin/../../lib/gcc/pic32mx/4.8.3/../../../../pic32mx/lib\libpic32.a(vector10.o)
                0x9fc01340                __vector_dispatch_10
                0x00000001                ASSERT (((_vector_spacing == 0x0) || (SIZEOF (.vector_10) <= (_vector_spacing << 0x5))), function at exception vector 10 too large)

.vector_11      0x9fc01360        0x8
 *(.vector_11)
 .vector_11     0x9fc01360        0x8 c:/program files/microchip/xc32/v2.40/bin/bin/../../lib/gcc/pic32mx/4.8.3/../../../../pic32mx/lib\libpic32.a(vector11.o)
                0x9fc01360                __vector_dispatch_11
                0x00000001                ASSERT (((_vector_spacing == 0x0) || (SIZEOF (.vector_11) <= (_vector_spacing << 0x5))), function at exception vector 11 too large)

.vector_12      0x9fc01380        0x8
 *(.vector_12)
 .vector_12     0x9fc01380        0x8 c:/program files/microchip/xc32/v2.40/bin/bin/../../lib/gcc/pic32mx/4.8.3/../../../../pic32mx/lib\libpic32.a(vector12.o)
                0x9fc01380                __vector_dispatch_12
                0x00000001                ASSERT (((_vector_spacing == 0x0) || (SIZEOF (.vector_12) <= (_vector_spacing << 0x5))), function at exception vector 12 too large)

.vector_13      0x9fc013a0        0x8
 *(.vector_13)
 .vector_13     0x9fc013a0        0x8 c:/program files/microchip/xc32/v2.40/bin/bin/../../lib/gcc/pic32mx/4.8.3/../../../../pic32mx/lib\libpic32.a(vector13.o)
                0x9fc013a0                __vector_dispatch_13
                0x00000001                ASSERT (((_vector_spacing == 0x0) || (SIZEOF (.vector_13) <= (_vector_spacing << 0x5))), function at exception vector 13 too large)

.vector_14      0x9fc013c0        0x8
 *(.vector_14)
 .vector_14     0x9fc013c0        0x8 c:/program files/microchip/xc32/v2.40/bin/bin/../../lib/gcc/pic32mx/4.8.3/../../../../pic32mx/lib\libpic32.a(vector14.o)
                0x9fc013c0                __vector_dispatch_14
                0x00000001                ASSERT (((_vector_spacing == 0x0) || (SIZEOF (.vector_14) <= (_vector_spacing << 0x5))), function at exception vector 14 too large)

.vector_15      0x9fc013e0        0x8
 *(.vector_15)
 .vector_15     0x9fc013e0        0x8 c:/program files/microchip/xc32/v2.40/bin/bin/../../lib/gcc/pic32mx/4.8.3/../../../../pic32mx/lib\libpic32.a(vector15.o)
                0x9fc013e0                __vector_dispatch_15
                0x00000001                ASSERT (((_vector_spacing == 0x0) || (SIZEOF (.vector_15) <= (_vector_spacing << 0x5))), function at exception vector 15 too large)

.vector_16      0x9fc01400        0x8
 *(.vector_16)
 .vector_16     0x9fc01400        0x8 c:/program files/microchip/xc32/v2.40/bin/bin/../../lib/gcc/pic32mx/4.8.3/../../../../pic32mx/lib\libpic32.a(vector16.o)
                0x9fc01400                __vector_dispatch_16
                0x00000001                ASSERT (((_vector_spacing == 0x0) || (SIZEOF (.vector_16) <= (_vector_spacing << 0x5))), function at exception vector 16 too large)

.vector_17      0x9fc01420        0x8
 *(.vector_17)
 .vector_17     0x9fc01420        0x8 c:/program files/microchip/xc32/v2.40/bin/bin/../../lib/gcc/pic32mx/4.8.3/../../../../pic32mx/lib\libpic32.a(vector17.o)
                0x9fc01420                __vector_dispatch_17
                0x00000001                ASSERT (((_vector_spacing == 0x0) || (SIZEOF (.vector_17) <= (_vector_spacing << 0x5))), function at exception vector 17 too large)

.vector_18      0x9fc01440        0x8
 *(.vector_18)
 .vector_18     0x9fc01440        0x8 c:/program files/microchip/xc32/v2.40/bin/bin/../../lib/gcc/pic32mx/4.8.3/../../../../pic32mx/lib\libpic32.a(vector18.o)
                0x9fc01440                __vector_dispatch_18
                0x00000001                ASSERT (((_vector_spacing == 0x0) || (SIZEOF (.vector_18) <= (_vector_spacing << 0x5))), function at exception vector 18 too large)

.vector_19      0x9fc01460        0x8
 *(.vector_19)
 .vector_19     0x9fc01460        0x8 c:/program files/microchip/xc32/v2.40/bin/bin/../../lib/gcc/pic32mx/4.8.3/../../../../pic32mx/lib\libpic32.a(vector19.o)
                0x9fc01460                __vector_dispatch_19
                0x00000001                ASSERT (((_vector_spacing == 0x0) || (SIZEOF (.vector_19) <= (_vector_spacing << 0x5))), function at exception vector 19 too large)

.vector_20      0x9fc01480        0x8
 *(.vector_20)
 .vector_20     0x9fc01480        0x8 c:/program files/microchip/xc32/v2.40/bin/bin/../../lib/gcc/pic32mx/4.8.3/../../../../pic32mx/lib\libpic32.a(vector20.o)
                0x9fc01480                __vector_dispatch_20
                0x00000001                ASSERT (((_vector_spacing == 0x0) || (SIZEOF (.vector_20) <= (_vector_spacing << 0x5))), function at exception vector 20 too large)

.vector_21      0x9fc014a0        0x8
 *(.vector_21)
 .vector_21     0x9fc014a0        0x8 c:/program files/microchip/xc32/v2.40/bin/bin/../../lib/gcc/pic32mx/4.8.3/../../../../pic32mx/lib\libpic32.a(vector21.o)
                0x9fc014a0                __vector_dispatch_21
                0x00000001                ASSERT (((_vector_spacing == 0x0) || (SIZEOF (.vector_21) <= (_vector_spacing << 0x5))), function at exception vector 21 too large)

.vector_22      0x9fc014c0        0x8
 *(.vector_22)
 .vector_22     0x9fc014c0        0x8 c:/program files/microchip/xc32/v2.40/bin/bin/../../lib/gcc/pic32mx/4.8.3/../../../../pic32mx/lib\libpic32.a(vector22.o)
                0x9fc014c0                __vector_dispatch_22
                0x00000001                ASSERT (((_vector_spacing == 0x0) || (SIZEOF (.vector_22) <= (_vector_spacing << 0x5))), function at exception vector 22 too large)

.vector_23      0x9fc014e0        0x8
 *(.vector_23)
 .vector_23     0x9fc014e0        0x8 c:/program files/microchip/xc32/v2.40/bin/bin/../../lib/gcc/pic32mx/4.8.3/../../../../pic32mx/lib\libpic32.a(vector23.o)
                0x9fc014e0                __vector_dispatch_23
                0x00000001                ASSERT (((_vector_spacing == 0x0) || (SIZEOF (.vector_23) <= (_vector_spacing << 0x5))), function at exception vector 23 too large)

.vector_24      0x9fc01500        0x8
 *(.vector_24)
 .vector_24     0x9fc01500        0x8 c:/program files/microchip/xc32/v2.40/bin/bin/../../lib/gcc/pic32mx/4.8.3/../../../../pic32mx/lib\libpic32.a(vector24.o)
                0x9fc01500                __vector_dispatch_24
                0x00000001                ASSERT (((_vector_spacing == 0x0) || (SIZEOF (.vector_24) <= (_vector_spacing << 0x5))), function at exception vector 24 too large)

.vector_25      0x9fc01520        0x8
 *(.vector_25)
 .vector_25     0x9fc01520        0x8 c:/program files/microchip/xc32/v2.40/bin/bin/../../lib/gcc/pic32mx/4.8.3/../../../../pic32mx/lib\libpic32.a(vector25.o)
                0x9fc01520                __vector_dispatch_25
                0x00000001                ASSERT (((_vector_spacing == 0x0) || (SIZEOF (.vector_25) <= (_vector_spacing << 0x5))), function at exception vector 25 too large)

.vector_26      0x9fc01540        0x8
 *(.vector_26)
 .vector_26     0x9fc01540        0x8 c:/program files/microchip/xc32/v2.40/bin/bin/../../lib/gcc/pic32mx/4.8.3/../../../../pic32mx/lib\libpic32.a(vector26.o)
                0x9fc01540                __vector_dispatch_26
                0x00000001                ASSERT (((_vector_spacing == 0x0) || (SIZEOF (.vector_26) <= (_vector_spacing << 0x5))), function at exception vector 26 too large)

.vector_27      0x9fc01560        0x8
 *(.vector_27)
 .vector_27     0x9fc01560        0x8 c:/program files/microchip/xc32/v2.40/bin/bin/../../lib/gcc/pic32mx/4.8.3/../../../../pic32mx/lib\libpic32.a(vector27.o)
                0x9fc01560                __vector_dispatch_27
                0x00000001                ASSERT (((_vector_spacing == 0x0) || (SIZEOF (.vector_27) <= (_vector_spacing << 0x5))), function at exception vector 27 too large)

.vector_28      0x9fc01580        0x8
 *(.vector_28)
 .vector_28     0x9fc01580        0x8 c:/program files/microchip/xc32/v2.40/bin/bin/../../lib/gcc/pic32mx/4.8.3/../../../../pic32mx/lib\libpic32.a(vector28.o)
                0x9fc01580                __vector_dispatch_28
                0x00000001                ASSERT (((_vector_spacing == 0x0) || (SIZEOF (.vector_28) <= (_vector_spacing << 0x5))), function at exception vector 28 too large)

.vector_29      0x9fc015a0        0x8
 *(.vector_29)
 .vector_29     0x9fc015a0        0x8 c:/program files/microchip/xc32/v2.40/bin/bin/../../lib/gcc/pic32mx/4.8.3/../../../../pic32mx/lib\libpic32.a(vector29.o)
                0x9fc015a0                __vector_dispatch_29
                0x00000001                ASSERT (((_vector_spacing == 0x0) || (SIZEOF (.vector_29) <= (_vector_spacing << 0x5))), function at exception vector 29 too large)

.vector_30      0x9fc015c0        0x8
 *(.vector_30)
 .vector_30     0x9fc015c0        0x8 c:/program files/microchip/xc32/v2.40/bin/bin/../../lib/gcc/pic32mx/4.8.3/../../../../pic32mx/lib\libpic32.a(vector30.o)
                0x9fc015c0                __vector_dispatch_30
                0x00000001                ASSERT (((_vector_spacing == 0x0) || (SIZEOF (.vector_30) <= (_vector_spacing << 0x5))), function at exception vector 30 too large)

.vector_31      0x9fc015e0        0x8
 *(.vector_31)
 .vector_31     0x9fc015e0        0x8 c:/program files/microchip/xc32/v2.40/bin/bin/../../lib/gcc/pic32mx/4.8.3/../../../../pic32mx/lib\libpic32.a(vector31.o)
                0x9fc015e0                __vector_dispatch_31
                0x00000001                ASSERT (((_vector_spacing == 0x0) || (SIZEOF (.vector_31) <= (_vector_spacing << 0x5))), function at exception vector 31 too large)

.vector_32      0x9fc01600        0x8
 *(.vector_32)
 .vector_32     0x9fc01600        0x8 c:/program files/microchip/xc32/v2.40/bin/bin/../../lib/gcc/pic32mx/4.8.3/../../../../pic32mx/lib\libpic32.a(vector32.o)
                0x9fc01600                __vector_dispatch_32
                0x00000001                ASSERT (((_vector_spacing == 0x0) || (SIZEOF (.vector_32) <= (_vector_spacing << 0x5))), function at exception vector 32 too large)

.vector_33      0x9fc01620        0x8
 *(.vector_33)
 .vector_33     0x9fc01620        0x8 c:/program files/microchip/xc32/v2.40/bin/bin/../../lib/gcc/pic32mx/4.8.3/../../../../pic32mx/lib\libpic32.a(vector33.o)
                0x9fc01620                __vector_dispatch_33
                0x00000001                ASSERT (((_vector_spacing == 0x0) || (SIZEOF (.vector_33) <= (_vector_spacing << 0x5))), function at exception vector 33 too large)

.vector_34      0x9fc01640        0x8
 *(.vector_34)
 .vector_34     0x9fc01640        0x8 c:/program files/microchip/xc32/v2.40/bin/bin/../../lib/gcc/pic32mx/4.8.3/../../../../pic32mx/lib\libpic32.a(vector34.o)
                0x9fc01640                __vector_dispatch_34
                0x00000001                ASSERT (((_vector_spacing == 0x0) || (SIZEOF (.vector_34) <= (_vector_spacing << 0x5))), function at exception vector 34 too large)

.vector_35      0x9fc01660        0x8
 *(.vector_35)
 .vector_35     0x9fc01660        0x8 c:/program files/microchip/xc32/v2.40/bin/bin/../../lib/gcc/pic32mx/4.8.3/../../../../pic32mx/lib\libpic32.a(vector35.o)
                0x9fc01660                __vector_dispatch_35
                0x00000001                ASSERT (((_vector_spacing == 0x0) || (SIZEOF (.vector_35) <= (_vector_spacing << 0x5))), function at exception vector 35 too large)

.vector_36      0x9fc01680        0x8
 *(.vector_36)
 .vector_36     0x9fc01680        0x8 c:/program files/microchip/xc32/v2.40/bin/bin/../../lib/gcc/pic32mx/4.8.3/../../../../pic32mx/lib\libpic32.a(vector36.o)
                0x9fc01680                __vector_dispatch_36
                0x00000001                ASSERT (((_vector_spacing == 0x0) || (SIZEOF (.vector_36) <= (_vector_spacing << 0x5))), function at exception vector 36 too large)

.vector_37      0x9fc016a0        0x8
 *(.vector_37)
 .vector_37     0x9fc016a0        0x8 c:/program files/microchip/xc32/v2.40/bin/bin/../../lib/gcc/pic32mx/4.8.3/../../../../pic32mx/lib\libpic32.a(vector37.o)
                0x9fc016a0                __vector_dispatch_37
                0x00000001                ASSERT (((_vector_spacing == 0x0) || (SIZEOF (.vector_37) <= (_vector_spacing << 0x5))), function at exception vector 37 too large)

.vector_38      0x9fc016c0        0x8
 *(.vector_38)
 .vector_38     0x9fc016c0        0x8 c:/program files/microchip/xc32/v2.40/bin/bin/../../lib/gcc/pic32mx/4.8.3/../../../../pic32mx/lib\libpic32.a(vector38.o)
                0x9fc016c0                __vector_dispatch_38
                0x00000001                ASSERT (((_vector_spacing == 0x0) || (SIZEOF (.vector_38) <= (_vector_spacing << 0x5))), function at exception vector 38 too large)

.vector_39      0x9fc016e0        0x8
 *(.vector_39)
 .vector_39     0x9fc016e0        0x8 c:/program files/microchip/xc32/v2.40/bin/bin/../../lib/gcc/pic32mx/4.8.3/../../../../pic32mx/lib\libpic32.a(vector39.o)
                0x9fc016e0                __vector_dispatch_39
                0x00000001                ASSERT (((_vector_spacing == 0x0) || (SIZEOF (.vector_39) <= (_vector_spacing << 0x5))), function at exception vector 39 too large)

.vector_40      0x9fc01700        0x8
 *(.vector_40)
 .vector_40     0x9fc01700        0x8 c:/program files/microchip/xc32/v2.40/bin/bin/../../lib/gcc/pic32mx/4.8.3/../../../../pic32mx/lib\libpic32.a(vector40.o)
                0x9fc01700                __vector_dispatch_40
                0x00000001                ASSERT (((_vector_spacing == 0x0) || (SIZEOF (.vector_40) <= (_vector_spacing << 0x5))), function at exception vector 40 too large)

.vector_41      0x9fc01720        0x8
 *(.vector_41)
 .vector_41     0x9fc01720        0x8 c:/program files/microchip/xc32/v2.40/bin/bin/../../lib/gcc/pic32mx/4.8.3/../../../../pic32mx/lib\libpic32.a(vector41.o)
                0x9fc01720                __vector_dispatch_41
                0x00000001                ASSERT (((_vector_spacing == 0x0) || (SIZEOF (.vector_41) <= (_vector_spacing << 0x5))), function at exception vector 41 too large)

.vector_42      0x9fc01740        0x8
 *(.vector_42)
 .vector_42     0x9fc01740        0x8 c:/program files/microchip/xc32/v2.40/bin/bin/../../lib/gcc/pic32mx/4.8.3/../../../../pic32mx/lib\libpic32.a(vector42.o)
                0x9fc01740                __vector_dispatch_42
                0x00000001                ASSERT (((_vector_spacing == 0x0) || (SIZEOF (.vector_42) <= (_vector_spacing << 0x5))), function at exception vector 42 too large)

.vector_43      0x9fc01760        0x8
 *(.vector_43)
 .vector_43     0x9fc01760        0x8 c:/program files/microchip/xc32/v2.40/bin/bin/../../lib/gcc/pic32mx/4.8.3/../../../../pic32mx/lib\libpic32.a(vector43.o)
                0x9fc01760                __vector_dispatch_43
                0x00000001                ASSERT (((_vector_spacing == 0x0) || (SIZEOF (.vector_43) <= (_vector_spacing << 0x5))), function at exception vector 43 too large)

.vector_44      0x9fc01780        0x8
 *(.vector_44)
 .vector_44     0x9fc01780        0x8 c:/program files/microchip/xc32/v2.40/bin/bin/../../lib/gcc/pic32mx/4.8.3/../../../../pic32mx/lib\libpic32.a(vector44.o)
                0x9fc01780                __vector_dispatch_44
                0x00000001                ASSERT (((_vector_spacing == 0x0) || (SIZEOF (.vector_44) <= (_vector_spacing << 0x5))), function at exception vector 44 too large)

.vector_45      0x9fc017a0        0x8
 *(.vector_45)
 .vector_45     0x9fc017a0        0x8 build/default/production/_ext/1688732426/system_interrupt.o
                0x9fc017a0                __vector_dispatch_45
                0x00000001                ASSERT (((_vector_spacing == 0x0) || (SIZEOF (.vector_45) <= (_vector_spacing << 0x5))), function at exception vector 45 too large)

.vector_46      0x9fc017c0        0x8
 *(.vector_46)
 .vector_46     0x9fc017c0        0x8 c:/program files/microchip/xc32/v2.40/bin/bin/../../lib/gcc/pic32mx/4.8.3/../../../../pic32mx/lib\libpic32.a(vector46.o)
                0x9fc017c0                __vector_dispatch_46
                0x00000001                ASSERT (((_vector_spacing == 0x0) || (SIZEOF (.vector_46) <= (_vector_spacing << 0x5))), function at exception vector 46 too large)

.vector_47      0x9fc017e0        0x8
 *(.vector_47)
 .vector_47     0x9fc017e0        0x8 c:/program files/microchip/xc32/v2.40/bin/bin/../../lib/gcc/pic32mx/4.8.3/../../../../pic32mx/lib\libpic32.a(vector47.o)
                0x9fc017e0                __vector_dispatch_47
                0x00000001                ASSERT (((_vector_spacing == 0x0) || (SIZEOF (.vector_47) <= (_vector_spacing << 0x5))), function at exception vector 47 too large)

.vector_48      0x9fc01800        0x8
 *(.vector_48)
 .vector_48     0x9fc01800        0x8 c:/program files/microchip/xc32/v2.40/bin/bin/../../lib/gcc/pic32mx/4.8.3/../../../../pic32mx/lib\libpic32.a(vector48.o)
                0x9fc01800                __vector_dispatch_48
                0x00000001                ASSERT (((_vector_spacing == 0x0) || (SIZEOF (.vector_48) <= (_vector_spacing << 0x5))), function at exception vector 48 too large)

.vector_49      0x9fc01820        0x8
 *(.vector_49)
 .vector_49     0x9fc01820        0x8 c:/program files/microchip/xc32/v2.40/bin/bin/../../lib/gcc/pic32mx/4.8.3/../../../../pic32mx/lib\libpic32.a(vector49.o)
                0x9fc01820                __vector_dispatch_49
                0x00000001                ASSERT (((_vector_spacing == 0x0) || (SIZEOF (.vector_49) <= (_vector_spacing << 0x5))), function at exception vector 49 too large)

.vector_50      0x9fc01840        0x8
 *(.vector_50)
 .vector_50     0x9fc01840        0x8 c:/program files/microchip/xc32/v2.40/bin/bin/../../lib/gcc/pic32mx/4.8.3/../../../../pic32mx/lib\libpic32.a(vector50.o)
                0x9fc01840                __vector_dispatch_50
                0x00000001                ASSERT (((_vector_spacing == 0x0) || (SIZEOF (.vector_50) <= (_vector_spacing << 0x5))), function at exception vector 50 too large)

.vector_51      0x9fc01860        0x8
 *(.vector_51)
 .vector_51     0x9fc01860        0x8 c:/program files/microchip/xc32/v2.40/bin/bin/../../lib/gcc/pic32mx/4.8.3/../../../../pic32mx/lib\libpic32.a(vector51.o)
                0x9fc01860                __vector_dispatch_51
                0x00000001                ASSERT (((_vector_spacing == 0x0) || (SIZEOF (.vector_51) <= (_vector_spacing << 0x5))), function at exception vector 51 too large)

.vector_52      0x9fc01880        0x0
 *(.vector_52)
                0x00000001                ASSERT (((_vector_spacing == 0x0) || (SIZEOF (.vector_52) <= (_vector_spacing << 0x5))), function at exception vector 52 too large)

.vector_53      0x9fc018a0        0x0
 *(.vector_53)
                0x00000001                ASSERT (((_vector_spacing == 0x0) || (SIZEOF (.vector_53) <= (_vector_spacing << 0x5))), function at exception vector 53 too large)

.vector_54      0x9fc018c0        0x0
 *(.vector_54)
                0x00000001                ASSERT (((_vector_spacing == 0x0) || (SIZEOF (.vector_54) <= (_vector_spacing << 0x5))), function at exception vector 54 too large)

.vector_55      0x9fc018e0        0x0
 *(.vector_55)
                0x00000001                ASSERT (((_vector_spacing == 0x0) || (SIZEOF (.vector_55) <= (_vector_spacing << 0x5))), function at exception vector 55 too large)

.vector_56      0x9fc01900        0x0
 *(.vector_56)
                0x00000001                ASSERT (((_vector_spacing == 0x0) || (SIZEOF (.vector_56) <= (_vector_spacing << 0x5))), function at exception vector 56 too large)

.vector_57      0x9fc01920        0x0
 *(.vector_57)
                0x00000001                ASSERT (((_vector_spacing == 0x0) || (SIZEOF (.vector_57) <= (_vector_spacing << 0x5))), function at exception vector 57 too large)

.vector_58      0x9fc01940        0x0
 *(.vector_58)
                0x00000001                ASSERT (((_vector_spacing == 0x0) || (SIZEOF (.vector_58) <= (_vector_spacing << 0x5))), function at exception vector 58 too large)

.vector_59      0x9fc01960        0x0
 *(.vector_59)
                0x00000001                ASSERT (((_vector_spacing == 0x0) || (SIZEOF (.vector_59) <= (_vector_spacing << 0x5))), function at exception vector 59 too large)

.vector_60      0x9fc01980        0x0
 *(.vector_60)
                0x00000001                ASSERT (((_vector_spacing == 0x0) || (SIZEOF (.vector_60) <= (_vector_spacing << 0x5))), function at exception vector 60 too large)

.vector_61      0x9fc019a0        0x0
 *(.vector_61)
                0x00000001                ASSERT (((_vector_spacing == 0x0) || (SIZEOF (.vector_61) <= (_vector_spacing << 0x5))), function at exception vector 61 too large)

.vector_62      0x9fc019c0        0x0
 *(.vector_62)
                0x00000001                ASSERT (((_vector_spacing == 0x0) || (SIZEOF (.vector_62) <= (_vector_spacing << 0x5))), function at exception vector 62 too large)

.vector_63      0x9fc019e0        0x0
 *(.vector_63)
                0x00000001                ASSERT (((_vector_spacing == 0x0) || (SIZEOF (.vector_63) <= (_vector_spacing << 0x5))), function at exception vector 63 too large)

.startup
 *(.startup)

.text           0x9d000000        0x0
 *(.stub .gnu.linkonce.t.*)
 *(.text.*personality*)
 *(.mips16.fn.*)
 *(.mips16.call.*)
 *(.gnu.warning)
                0x9d000000                . = ALIGN (0x4)

.init           0x9d000000        0x0
 *crti.o(.init)
 *crtbegin.o(.init)
 *(EXCLUDE_FILE(*crtn.o *crtend?.o *crtend.o) .init)
 *crtend.o(.init)
 *crtn.o(.init)
                0x9d000000                . = ALIGN (0x4)

.fini           0x9d000000        0x0
 *(.fini)
                0x9d000000                . = ALIGN (0x4)

.preinit_array  0x9d000000        0x0
                0x9d000000                PROVIDE (__preinit_array_start, .)
 *(.preinit_array)
                0x9d000000                PROVIDE (__preinit_array_end, .)
                0x9d000000                . = ALIGN (0x4)

.init_array     0x9d000000        0x0
                0x9d000000                PROVIDE (__init_array_start, .)
 *(SORT(.init_array.*))
 *(.init_array)
                0x9d000000                PROVIDE (__init_array_end, .)
                0x9d000000                . = ALIGN (0x4)

.fini_array     0x9d000000        0x0
                0x9d000000                PROVIDE (__fini_array_start, .)
 *(SORT(.fini_array.*))
 *(.fini_array)
                0x9d000000                PROVIDE (__fini_array_end, .)
                0x9d000000                . = ALIGN (0x4)

.ctors          0x9d000000        0x0
 *crtbegin.o(.ctors)
 *crtbegin?.o(.ctors)
 *(EXCLUDE_FILE(*crtend?.o *crtend.o) .ctors)
 *(SORT(.ctors.*))
 *(.ctors)
                0x9d000000                . = ALIGN (0x4)

.dtors          0x9d000000        0x0
 *crtbegin.o(.dtors)
 *crtbegin?.o(.dtors)
 *(EXCLUDE_FILE(*crtend?.o *crtend.o) .dtors)
 *(SORT(.dtors.*))
 *(.dtors)
                0x9d000000                . = ALIGN (0x4)

.rodata         0x9d000000        0x0
 *(.gnu.linkonce.r.*)
 *(.rodata1)
                0x9d000000                . = ALIGN (0x4)

.sdata2         0x9fc00490        0x0
 *(.sdata2 .sdata2.* .gnu.linkonce.s2.*)
                0x9fc00490                . = ALIGN (0x4)

.sbss2          0x9fc00490        0x0
 *(.sbss2 .sbss2.* .gnu.linkonce.sb2.*)
                0x9fc00490                . = ALIGN (0x4)

.eh_frame_hdr
 *(.eh_frame_hdr)
                0x9fc00490                . = ALIGN (0x4)

.eh_frame
 *(.eh_frame)
                0x9fc00490                . = ALIGN (0x4)

.gcc_except_table
 *(.gcc_except_table .gcc_except_table.*)
                0x9fc00490                . = ALIGN (0x4)

.dbg_data       0xa0000000        0x0
                0xa0000000                . = (. + DEFINED (_DEBUGGER)?0x200:0x0)

.jcr            0xa0000000        0x0
 *(.jcr)
                0xa0000000                . = ALIGN (0x4)

.eh_frame
 *(.eh_frame)
                0xa0000000                . = ALIGN (0x4)

.gcc_except_table
 *(.gcc_except_table .gcc_except_table.*)
                0xa0000000                . = ALIGN (0x4)

.persist        0xa0000000        0x0
                0xa0000000                _persist_begin = .
 *(.persist .persist.*)
 *(.pbss .pbss.*)
                0xa0000000                . = ALIGN (0x4)
                0xa0000000                _persist_end = .

.data           0xa0000000        0x0
 *(.gnu.linkonce.d.*)
 *(.data1)
                0xa0000000                . = ALIGN (0x4)
                0xa0000000                . = .
                0xa0007ff0                _gp = (ALIGN (0x10) + 0x7ff0)

.got            0xa0000000        0x0
 *(.got.plt)
 *(.got)
                0xa0000000                . = ALIGN (0x4)

.sdata          0xa0000000        0xc
                0xa0000000                _sdata_begin = .
 *(.sdata .sdata.* .gnu.linkonce.s.*)
 .sdata         0xa0000000        0x8 build/default/production/_ext/456076708/diskio.o
                0xa0000000                gDiskCommandHandle
                0xa0000004                gDiskCommandStatus
 .sdata         0xa0000008        0x4 c:/program files/microchip/xc32/v2.40/bin/bin/../../lib/gcc/pic32mx/4.8.3/../../../../pic32mx/lib\libpic32.a(xc32_uart.o)
                0xa0000008                __XC_UART
                0xa000000c                . = ALIGN (0x4)
                0xa000000c                _sdata_end = .

.lit8
 *(.lit8)

.lit4
 *(.lit4)
                0xa000000c                . = ALIGN (0x4)
                0xa000000c                _data_end = .
                0xa000000c                _bss_begin = .

.sbss           0xa000000c       0x50
                0xa000000c                _sbss_begin = .
 *(.dynsbss)
 *(.sbss .sbss.* .gnu.linkonce.sb.*)
 .sbss          0xa000000c        0x4 build/default/production/_ext/1475996069/drv_tmr.o
 .sbss          0xa0000010        0xc build/default/production/_ext/2105109636/sys_fs_media_manager.o
 .sbss          0xa000001c        0x8 build/default/production/_ext/312387365/ff.o
 .sbss          0xa0000024        0xc build/default/production/_ext/1688732426/system_exceptions.o
 *(.scommon)
 .scommon       0xa0000030        0x8 build/default/production/_ext/1360937237/app.o
                0xa0000030                handle20ms
                0xa0000034                handle30ms
 .scommon       0xa0000038       0x18 build/default/production/_ext/2105109636/sys_fs.o
                0xa0000038                gSYSFSObj
                0xa0000040                gSysFsMutex
                0xa0000044                gSYSFSCurrentMountPoint
                0xa000004c                errorValue
 .scommon       0xa0000050        0x2 build/default/production/_ext/2105109636/sys_fs_media_manager.o
                0xa0000050                VolToPart
 *fill*         0xa0000052        0x2 
 .scommon       0xa0000054        0x0 build/default/production/_ext/1699675045/usb_host_scsi.o
                0xa0000054                gUSBHostSCSIAttachListener
 .scommon       0xa0000054        0x8 build/default/production/_ext/340578644/sys_devcon.o
                0xa0000054                sysDevconObj
                0xa000005c                _sbss_end = .
                0xa000005c                . = ALIGN (0x4)

.bss            0xa0000200      0xa30
 *(.dynbss)
 *(COMMON)
 COMMON         0xa0000200      0x414 build/default/production/_ext/1360937237/app.o
                0xa0000200                appData
 *fill*         0xa0000614        0xc 
 COMMON         0xa0000620      0x134 build/default/production/_ext/2105109636/sys_fs.o
                0xa0000620                gSYSFSFileObj
                0xa0000730                gSYSFSDirObj
                0xa0000740                gSYSFSMountPoint
 COMMON         0xa0000754       0x48 build/default/production/_ext/2105109636/sys_fs_media_manager.o
                0xa0000754                gSYSFSMediaObject
                0xa0000780                gSYSFSVolumeObject
 COMMON         0xa000079c      0x114 build/default/production/_ext/1150371026/drv_usbfs.o
                0xa000079c                gDrvUSBGroup
 COMMON         0xa00008b0      0x1b8 build/default/production/_ext/1150371026/drv_usbfs_host.o
                0xa00008b0                gDrvUSBHostPipeObj
 COMMON         0xa0000a68       0x74 build/default/production/_ext/1699675045/usb_host_msd.o
                0xa0000a68                gUSBHostMSDInstance
 COMMON         0xa0000adc       0xe0 build/default/production/_ext/1699675045/usb_host_scsi.o
                0xa0000adc                gUSBHostSCSIObj
 *fill*         0xa0000bbc       0x44 
 COMMON         0xa0000c00       0x30 build/default/production/_ext/1688732426/system_init.o
                0xa0000c00                endPointTable
                0xa0000c20                sysObj
                0xa0000c30                . = ALIGN ((. != 0x0)?0x4:0x1)
                0xa0000c30                . = ALIGN (0x4)
                0xa0000c30                _end = .
                0xa0000c30                _bss_end = .
                0x00020000                _bmxdudba_address = 0x20000
                0x00020000                _bmxdupba_address = 0x20000

/DISCARD/
 *(.pdr)
 *(.rel.dyn)
 *(.note.GNU-stack)
 *(.note.GNU-stack)
 *(.gnu_debuglink)
 *(.gnu.lto_*)
 *(.discard)

.gptab.sdata
 *(.gptab.data)
 *(.gptab.sdata)

.gptab.sbss
 *(.gptab.bss)
 *(.gptab.sbss)

.mdebug.abi32   0xa0000c30        0x0
 *(.mdebug.abi32)
 .mdebug.abi32  0xa0000c30        0x0 build/default/production/_ext/1360937237/app.o
 .mdebug.abi32  0xa0000c30        0x0 build/default/production/_ext/1360937237/main.o
 .mdebug.abi32  0xa0000c30        0x0 build/default/production/_ext/1475996069/drv_tmr.o
 .mdebug.abi32  0xa0000c30        0x0 build/default/production/_ext/2105109636/sys_fs.o
 .mdebug.abi32  0xa0000c30        0x0 build/default/production/_ext/2105109636/sys_fs_media_manager.o
 .mdebug.abi32  0xa0000c30        0x0 build/default/production/_ext/312387365/ff.o
 .mdebug.abi32  0xa0000c30        0x0 build/default/production/_ext/456076708/diskio.o
 .mdebug.abi32  0xa0000c30        0x0 build/default/production/_ext/1020727214/sys_int_pic32.o
 .mdebug.abi32  0xa0000c30        0x0 build/default/production/_ext/121402492/sys_tmr.o
 .mdebug.abi32  0xa0000c30        0x0 build/default/production/_ext/1150371026/drv_usbfs.o
 .mdebug.abi32  0xa0000c30        0x0 build/default/production/_ext/1699675045/usb_host.o
 .mdebug.abi32  0xa0000c30        0x0 build/default/production/_ext/1150371026/drv_usbfs_host.o
 .mdebug.abi32  0xa0000c30        0x0 build/default/production/_ext/1699675045/usb_host_msd.o
 .mdebug.abi32  0xa0000c30        0x0 build/default/production/_ext/1699675045/usb_host_scsi.o
 .mdebug.abi32  0xa0000c30        0x0 build/default/production/_ext/639803181/sys_clk_pic32mx.o
 .mdebug.abi32  0xa0000c30        0x0 build/default/production/_ext/340578644/sys_devcon.o
 .mdebug.abi32  0xa0000c30        0x0 build/default/production/_ext/340578644/sys_devcon_pic32mx.o
 .mdebug.abi32  0xa0000c30        0x0 build/default/production/_ext/822048611/sys_ports_static.o
 .mdebug.abi32  0xa0000c30        0x0 build/default/production/_ext/74298950/bsp.o
 .mdebug.abi32  0xa0000c30        0x0 build/default/production/_ext/1688732426/system_init.o
 .mdebug.abi32  0xa0000c30        0x0 build/default/production/_ext/1688732426/system_interrupt.o
 .mdebug.abi32  0xa0000c30        0x0 build/default/production/_ext/1688732426/system_exceptions.o
 .mdebug.abi32  0xa0000c30        0x0 build/default/production/_ext/1688732426/system_tasks.o
 .mdebug.abi32  0xa0000c30        0x0 c:/program files/microchip/xc32/v2.40/bin/bin/../../lib/gcc/pic32mx/4.8.3\libgcc.a(_udivdi3.o)
 .mdebug.abi32  0xa0000c30        0x0 c:/program files/microchip/xc32/v2.40/bin/bin/../../lib/gcc/pic32mx/4.8.3/../../../../pic32mx/lib\libpic32.a(default-bootstrap-exception-handler.o)
 .mdebug.abi32  0xa0000c30        0x0 c:/program files/microchip/xc32/v2.40/bin/bin/../../lib/gcc/pic32mx/4.8.3/../../../../pic32mx/lib\libpic32.a(default-on-reset.o)
 .mdebug.abi32  0xa0000c30        0x0 c:/program files/microchip/xc32/v2.40/bin/bin/../../lib/gcc/pic32mx/4.8.3/../../../../pic32mx/lib\libpic32.a(default-on-bootstrap.o)
 .mdebug.abi32  0xa0000c30        0x0 c:/program files/microchip/xc32/v2.40/bin/bin/../../lib/gcc/pic32mx/4.8.3/../../../../pic32mx/lib\libpic32.a(defaultinterrupt.o)
 .mdebug.abi32  0xa0000c30        0x0 c:/program files/microchip/xc32/v2.40/bin/bin/../../lib/gcc/pic32mx/4.8.3/../../../../pic32mx/lib\libc.a(malloc.o)
 .mdebug.abi32  0xa0000c30        0x0 c:/program files/microchip/xc32/v2.40/bin/bin/../../lib/gcc/pic32mx/4.8.3/../../../../pic32mx/lib\libc.a(strncmp.o)
 .mdebug.abi32  0xa0000c30        0x0 c:/program files/microchip/xc32/v2.40/bin/bin/../../lib/gcc/pic32mx/4.8.3/../../../../pic32mx/lib\libc.a(strncpy.o)
 .mdebug.abi32  0xa0000c30        0x0 c:/program files/microchip/xc32/v2.40/bin/bin/../../lib/gcc/pic32mx/4.8.3/../../../../pic32mx/lib\libc.a(printf_s.eo)
 .mdebug.abi32  0xa0000c30        0x0 c:/program files/microchip/xc32/v2.40/bin/bin/../../lib/gcc/pic32mx/4.8.3/../../../../pic32mx/lib\libc.a(_iob.o)
 .mdebug.abi32  0xa0000c30        0x0 c:/program files/microchip/xc32/v2.40/bin/bin/../../lib/gcc/pic32mx/4.8.3/../../../../pic32mx/lib\libc.a(doprnt_s.eo)
 .mdebug.abi32  0xa0000c30        0x0 c:/program files/microchip/xc32/v2.40/bin/bin/../../lib/gcc/pic32mx/4.8.3/../../../../pic32mx/lib\libc.a(_fputc_simple.o)
 .mdebug.abi32  0xa0000c30        0x0 c:/program files/microchip/xc32/v2.40/bin/bin/../../lib/gcc/pic32mx/4.8.3/../../../../pic32mx/lib\libc.a(ctype.o)
 .mdebug.abi32  0xa0000c30        0x0 c:/program files/microchip/xc32/v2.40/bin/bin/../../lib/gcc/pic32mx/4.8.3/../../../../pic32mx/lib\libc.a(_flsbuf_simple.o)
 .mdebug.abi32  0xa0000c30        0x0 c:/program files/microchip/xc32/v2.40/bin/bin/../../lib/gcc/pic32mx/4.8.3\libgcc.a(_umoddi3.o)
 .mdebug.abi32  0xa0000c30        0x0 c:/program files/microchip/xc32/v2.40/bin/bin/../../lib/gcc/pic32mx/4.8.3/../../../../pic32mx/lib\libpic32.a(sbrk.o)
 .mdebug.abi32  0xa0000c30        0x0 c:/program files/microchip/xc32/v2.40/bin/bin/../../lib/gcc/pic32mx/4.8.3/../../../../pic32mx/lib\libpic32.a(write.o)
 .mdebug.abi32  0xa0000c30        0x0 c:/program files/microchip/xc32/v2.40/bin/bin/../../lib/gcc/pic32mx/4.8.3/../../../../pic32mx/lib\libpic32.a(errno.o)
 .mdebug.abi32  0xa0000c30        0x0 c:/program files/microchip/xc32/v2.40/bin/bin/../../lib/gcc/pic32mx/4.8.3/../../../../pic32mx/lib\libpic32.a(_mon_putc.o)
 .mdebug.abi32  0xa0000c30        0x0 c:/program files/microchip/xc32/v2.40/bin/bin/../../lib/gcc/pic32mx/4.8.3/../../../../pic32mx/lib\libpic32.a(xc32_uart.o)

.mdebug.abiN32
 *(.mdebug.abiN32)

.mdebug.abi64
 *(.mdebug.abi64)

.mdebug.abiO64
 *(.mdebug.abiO64)

.mdebug.eabi32
 *(.mdebug.eabi32)

.mdebug.eabi64
 *(.mdebug.eabi64)

.gcc_compiled_long32
 *(.gcc_compiled_long32)

.gcc_compiled_long64
 *(.gcc_compiled_long64)

.stab
 *(.stab)

.stabstr
 *(.stabstr)

.stab.excl
 *(.stab.excl)

.stab.exclstr
 *(.stab.exclstr)

.stab.index
 *(.stab.index)

.stab.indexstr
 *(.stab.indexstr)

.comment        0x00000000      0x137
 *(.comment)
 .comment       0x00000000       0x3c build/default/production/_ext/1360937237/app.o
                                 0x3d (size before relaxing)
 .comment       0x00000000       0x3d build/default/production/_ext/1360937237/main.o
 .comment       0x00000000       0x3d build/default/production/_ext/1475996069/drv_tmr.o
 .comment       0x00000000       0x3d build/default/production/_ext/2105109636/sys_fs.o
 .comment       0x00000000       0x3d build/default/production/_ext/2105109636/sys_fs_media_manager.o
 .comment       0x00000000       0x3d build/default/production/_ext/312387365/ff.o
 .comment       0x00000000       0x3d build/default/production/_ext/456076708/diskio.o
 .comment       0x00000000       0x3d build/default/production/_ext/1020727214/sys_int_pic32.o
 .comment       0x00000000       0x3d build/default/production/_ext/121402492/sys_tmr.o
 .comment       0x00000000       0x3d build/default/production/_ext/1150371026/drv_usbfs.o
 .comment       0x00000000       0x3d build/default/production/_ext/1699675045/usb_host.o
 .comment       0x00000000       0x3d build/default/production/_ext/1150371026/drv_usbfs_host.o
 .comment       0x00000000       0x3d build/default/production/_ext/1699675045/usb_host_msd.o
 .comment       0x00000000       0x3d build/default/production/_ext/1699675045/usb_host_scsi.o
 .comment       0x00000000       0x3d build/default/production/_ext/639803181/sys_clk_pic32mx.o
 .comment       0x00000000       0x3d build/default/production/_ext/340578644/sys_devcon.o
 .comment       0x00000000       0x3d build/default/production/_ext/340578644/sys_devcon_pic32mx.o
 .comment       0x00000000       0x3d build/default/production/_ext/822048611/sys_ports_static.o
 .comment       0x00000000       0x3d build/default/production/_ext/74298950/bsp.o
 .comment       0x00000000       0x3d build/default/production/_ext/1688732426/system_init.o
 .comment       0x00000000       0x3d build/default/production/_ext/1688732426/system_interrupt.o
 .comment       0x00000000       0x3d build/default/production/_ext/1688732426/system_exceptions.o
 .comment       0x00000000       0x3d build/default/production/_ext/1688732426/system_tasks.o
 .comment       0x00000000       0x3d c:/program files/microchip/xc32/v2.40/bin/bin/../../lib/gcc/pic32mx/4.8.3\libgcc.a(_udivdi3.o)
 .comment       0x0000003c       0x18 c:/program files/microchip/xc32/v2.40/bin/bin/../../lib/gcc/pic32mx/4.8.3/../../../../pic32mx/lib\libpic32.a(memcmp.o)
                                 0x19 (size before relaxing)
 .comment       0x00000054       0x18 c:/program files/microchip/xc32/v2.40/bin/bin/../../lib/gcc/pic32mx/4.8.3/../../../../pic32mx/lib\libpic32.a(memset.o)
                                 0x19 (size before relaxing)
 .comment       0x0000006c       0x19 c:/program files/microchip/xc32/v2.40/bin/bin/../../lib/gcc/pic32mx/4.8.3/../../../../pic32mx/lib\libpic32.a(strcmp.o)
                                 0x1a (size before relaxing)
 .comment       0x00000085       0x19 c:/program files/microchip/xc32/v2.40/bin/bin/../../lib/gcc/pic32mx/4.8.3/../../../../pic32mx/lib\libpic32.a(strlen.o)
                                 0x1a (size before relaxing)
 .comment       0x00000000       0x3d c:/program files/microchip/xc32/v2.40/bin/bin/../../lib/gcc/pic32mx/4.8.3/../../../../pic32mx/lib\libpic32.a(default-bootstrap-exception-handler.o)
 .comment       0x00000000       0x3d c:/program files/microchip/xc32/v2.40/bin/bin/../../lib/gcc/pic32mx/4.8.3/../../../../pic32mx/lib\libpic32.a(default-on-reset.o)
 .comment       0x00000000       0x3d c:/program files/microchip/xc32/v2.40/bin/bin/../../lib/gcc/pic32mx/4.8.3/../../../../pic32mx/lib\libpic32.a(default-on-bootstrap.o)
 .comment       0x00000000       0x3d c:/program files/microchip/xc32/v2.40/bin/bin/../../lib/gcc/pic32mx/4.8.3/../../../../pic32mx/lib\libpic32.a(defaultinterrupt.o)
 .comment       0x00000000       0x3d c:/program files/microchip/xc32/v2.40/bin/bin/../../lib/gcc/pic32mx/4.8.3/../../../../pic32mx/lib\libc.a(malloc.o)
 .comment       0x00000000       0x3d c:/program files/microchip/xc32/v2.40/bin/bin/../../lib/gcc/pic32mx/4.8.3/../../../../pic32mx/lib\libc.a(strncmp.o)
 .comment       0x00000000       0x3d c:/program files/microchip/xc32/v2.40/bin/bin/../../lib/gcc/pic32mx/4.8.3/../../../../pic32mx/lib\libc.a(strncpy.o)
 .comment       0x00000000       0x3d c:/program files/microchip/xc32/v2.40/bin/bin/../../lib/gcc/pic32mx/4.8.3/../../../../pic32mx/lib\libc.a(printf_s.eo)
 .comment       0x00000000       0x3d c:/program files/microchip/xc32/v2.40/bin/bin/../../lib/gcc/pic32mx/4.8.3/../../../../pic32mx/lib\libc.a(_iob.o)
 .comment       0x00000000       0x3d c:/program files/microchip/xc32/v2.40/bin/bin/../../lib/gcc/pic32mx/4.8.3/../../../../pic32mx/lib\libc.a(doprnt_s.eo)
 .comment       0x00000000       0x3d c:/program files/microchip/xc32/v2.40/bin/bin/../../lib/gcc/pic32mx/4.8.3/../../../../pic32mx/lib\libc.a(_fputc_simple.o)
 .comment       0x0000009e       0x4e c:/program files/microchip/xc32/v2.40/bin/bin/../../lib/gcc/pic32mx/4.8.3/../../../../pic32mx/lib\libc.a(ctype.o)
                                 0x8b (size before relaxing)
 .comment       0x00000000       0x3d c:/program files/microchip/xc32/v2.40/bin/bin/../../lib/gcc/pic32mx/4.8.3/../../../../pic32mx/lib\libc.a(_flsbuf_simple.o)
 .comment       0x00000000       0x3d c:/program files/microchip/xc32/v2.40/bin/bin/../../lib/gcc/pic32mx/4.8.3\libgcc.a(_umoddi3.o)
 .comment       0x000000ec       0x4b c:/program files/microchip/xc32/v2.40/bin/bin/../../lib/gcc/pic32mx/4.8.3/../../../../pic32mx/lib\libpic32.a(sbrk.o)
                                 0x88 (size before relaxing)
 .comment       0x00000000       0x3d c:/program files/microchip/xc32/v2.40/bin/bin/../../lib/gcc/pic32mx/4.8.3/../../../../pic32mx/lib\libpic32.a(write.o)
 .comment       0x00000000       0x3d c:/program files/microchip/xc32/v2.40/bin/bin/../../lib/gcc/pic32mx/4.8.3/../../../../pic32mx/lib\libpic32.a(errno.o)
 .comment       0x00000000       0x3d c:/program files/microchip/xc32/v2.40/bin/bin/../../lib/gcc/pic32mx/4.8.3/../../../../pic32mx/lib\libpic32.a(_mon_putc.o)
 .comment       0x00000000       0x3d c:/program files/microchip/xc32/v2.40/bin/bin/../../lib/gcc/pic32mx/4.8.3/../../../../pic32mx/lib\libpic32.a(xc32_uart.o)

.debug
 *(.debug)

.line
 *(.line)

.debug_srcinfo
 *(.debug_srcinfo)

.debug_sfnames
 *(.debug_sfnames)

.debug_aranges  0x00000000     0x10e8
 *(.debug_aranges)
 .debug_aranges
                0x00000000       0x38 build/default/production/_ext/1360937237/app.o
 .debug_aranges
                0x00000038       0x20 build/default/production/_ext/1360937237/main.o
 .debug_aranges
                0x00000058      0x110 build/default/production/_ext/1475996069/drv_tmr.o
 .debug_aranges
                0x00000168      0x178 build/default/production/_ext/2105109636/sys_fs.o
 .debug_aranges
                0x000002e0       0xa0 build/default/production/_ext/2105109636/sys_fs_media_manager.o
 .debug_aranges
                0x00000380      0x228 build/default/production/_ext/312387365/ff.o
 .debug_aranges
                0x000005a8       0x50 build/default/production/_ext/456076708/diskio.o
 .debug_aranges
                0x000005f8       0x48 build/default/production/_ext/1020727214/sys_int_pic32.o
 .debug_aranges
                0x00000640       0xd0 build/default/production/_ext/121402492/sys_tmr.o
 .debug_aranges
                0x00000710       0x60 build/default/production/_ext/1150371026/drv_usbfs.o
 .debug_aranges
                0x00000770      0x1e0 build/default/production/_ext/1699675045/usb_host.o
 .debug_aranges
                0x00000950       0xf8 build/default/production/_ext/1150371026/drv_usbfs_host.o
 .debug_aranges
                0x00000a48       0x98 build/default/production/_ext/1699675045/usb_host_msd.o
 .debug_aranges
                0x00000ae0       0xe0 build/default/production/_ext/1699675045/usb_host_scsi.o
 .debug_aranges
                0x00000bc0       0x50 build/default/production/_ext/639803181/sys_clk_pic32mx.o
 .debug_aranges
                0x00000c10       0x78 build/default/production/_ext/340578644/sys_devcon.o
 .debug_aranges
                0x00000c88       0x20 build/default/production/_ext/340578644/sys_devcon_pic32mx.o
 .debug_aranges
                0x00000ca8      0x148 build/default/production/_ext/822048611/sys_ports_static.o
 .debug_aranges
                0x00000df0       0x40 build/default/production/_ext/74298950/bsp.o
 .debug_aranges
                0x00000e30       0x20 build/default/production/_ext/1688732426/system_init.o
 .debug_aranges
                0x00000e50       0x28 build/default/production/_ext/1688732426/system_interrupt.o
 .debug_aranges
                0x00000e78       0x20 build/default/production/_ext/1688732426/system_exceptions.o
 .debug_aranges
                0x00000e98       0x20 build/default/production/_ext/1688732426/system_tasks.o
 .debug_aranges
                0x00000eb8       0x20 c:/program files/microchip/xc32/v2.40/bin/bin/../../lib/gcc/pic32mx/4.8.3\libgcc.a(_udivdi3.o)
 .debug_aranges
                0x00000ed8       0x20 c:/program files/microchip/xc32/v2.40/bin/bin/../../lib/gcc/pic32mx/4.8.3/../../../../pic32mx/lib\libpic32.a(default-bootstrap-exception-handler.o)
 .debug_aranges
                0x00000ef8       0x20 c:/program files/microchip/xc32/v2.40/bin/bin/../../lib/gcc/pic32mx/4.8.3/../../../../pic32mx/lib\libpic32.a(default-on-reset.o)
 .debug_aranges
                0x00000f18       0x20 c:/program files/microchip/xc32/v2.40/bin/bin/../../lib/gcc/pic32mx/4.8.3/../../../../pic32mx/lib\libpic32.a(default-on-bootstrap.o)
 .debug_aranges
                0x00000f38       0x20 c:/program files/microchip/xc32/v2.40/bin/bin/../../lib/gcc/pic32mx/4.8.3/../../../../pic32mx/lib\libpic32.a(defaultinterrupt.o)
 .debug_aranges
                0x00000f58       0x30 c:/program files/microchip/xc32/v2.40/bin/bin/../../lib/gcc/pic32mx/4.8.3/../../../../pic32mx/lib\libc.a(malloc.o)
 .debug_aranges
                0x00000f88       0x20 c:/program files/microchip/xc32/v2.40/bin/bin/../../lib/gcc/pic32mx/4.8.3/../../../../pic32mx/lib\libc.a(strncmp.o)
 .debug_aranges
                0x00000fa8       0x20 c:/program files/microchip/xc32/v2.40/bin/bin/../../lib/gcc/pic32mx/4.8.3/../../../../pic32mx/lib\libc.a(strncpy.o)
 .debug_aranges
                0x00000fc8       0x20 c:/program files/microchip/xc32/v2.40/bin/bin/../../lib/gcc/pic32mx/4.8.3/../../../../pic32mx/lib\libc.a(printf_s.eo)
 .debug_aranges
                0x00000fe8       0x20 c:/program files/microchip/xc32/v2.40/bin/bin/../../lib/gcc/pic32mx/4.8.3/../../../../pic32mx/lib\libc.a(doprnt_s.eo)
 .debug_aranges
                0x00001008       0x20 c:/program files/microchip/xc32/v2.40/bin/bin/../../lib/gcc/pic32mx/4.8.3/../../../../pic32mx/lib\libc.a(_fputc_simple.o)
 .debug_aranges
                0x00001028       0x20 c:/program files/microchip/xc32/v2.40/bin/bin/../../lib/gcc/pic32mx/4.8.3/../../../../pic32mx/lib\libc.a(_flsbuf_simple.o)
 .debug_aranges
                0x00001048       0x20 c:/program files/microchip/xc32/v2.40/bin/bin/../../lib/gcc/pic32mx/4.8.3\libgcc.a(_umoddi3.o)
 .debug_aranges
                0x00001068       0x40 c:/program files/microchip/xc32/v2.40/bin/bin/../../lib/gcc/pic32mx/4.8.3/../../../../pic32mx/lib\libpic32.a(sbrk.o)
 .debug_aranges
                0x000010a8       0x20 c:/program files/microchip/xc32/v2.40/bin/bin/../../lib/gcc/pic32mx/4.8.3/../../../../pic32mx/lib\libpic32.a(write.o)
 .debug_aranges
                0x000010c8       0x20 c:/program files/microchip/xc32/v2.40/bin/bin/../../lib/gcc/pic32mx/4.8.3/../../../../pic32mx/lib\libpic32.a(_mon_putc.o)

.debug_pubnames
 *(.debug_pubnames)

.debug_info     0x00000000    0x47e35
 *(.debug_info .gnu.linkonce.wi.*)
 .debug_info    0x00000000     0x16cd build/default/production/_ext/1360937237/app.o
 .debug_info    0x000016cd      0x1b5 build/default/production/_ext/1360937237/main.o
 .debug_info    0x00001882     0x5649 build/default/production/_ext/1475996069/drv_tmr.o
 .debug_info    0x00006ecb     0x4224 build/default/production/_ext/2105109636/sys_fs.o
 .debug_info    0x0000b0ef     0x2602 build/default/production/_ext/2105109636/sys_fs_media_manager.o
 .debug_info    0x0000d6f1     0x5563 build/default/production/_ext/312387365/ff.o
 .debug_info    0x00012c54      0xe89 build/default/production/_ext/456076708/diskio.o
 .debug_info    0x00013add     0x15b1 build/default/production/_ext/1020727214/sys_int_pic32.o
 .debug_info    0x0001508e     0x2a7a build/default/production/_ext/121402492/sys_tmr.o
 .debug_info    0x00017b08     0x5699 build/default/production/_ext/1150371026/drv_usbfs.o
 .debug_info    0x0001d1a1     0x8020 build/default/production/_ext/1699675045/usb_host.o
 .debug_info    0x000251c1     0x9a86 build/default/production/_ext/1150371026/drv_usbfs_host.o
 .debug_info    0x0002ec47     0x3d49 build/default/production/_ext/1699675045/usb_host_msd.o
 .debug_info    0x00032990     0x39d2 build/default/production/_ext/1699675045/usb_host_scsi.o
 .debug_info    0x00036362     0x14d6 build/default/production/_ext/639803181/sys_clk_pic32mx.o
 .debug_info    0x00037838     0x178b build/default/production/_ext/340578644/sys_devcon.o
 .debug_info    0x00038fc3     0x18ce build/default/production/_ext/340578644/sys_devcon_pic32mx.o
 .debug_info    0x0003a891     0x4118 build/default/production/_ext/822048611/sys_ports_static.o
 .debug_info    0x0003e9a9      0xa2b build/default/production/_ext/74298950/bsp.o
 .debug_info    0x0003f3d4     0x4e5a build/default/production/_ext/1688732426/system_init.o
 .debug_info    0x0004422e      0xa79 build/default/production/_ext/1688732426/system_interrupt.o
 .debug_info    0x00044ca7      0xc54 build/default/production/_ext/1688732426/system_exceptions.o
 .debug_info    0x000458fb      0xa9a build/default/production/_ext/1688732426/system_tasks.o
 .debug_info    0x00046395      0x74b c:/program files/microchip/xc32/v2.40/bin/bin/../../lib/gcc/pic32mx/4.8.3\libgcc.a(_udivdi3.o)
 .debug_info    0x00046ae0       0xf4 c:/program files/microchip/xc32/v2.40/bin/bin/../../lib/gcc/pic32mx/4.8.3/../../../../pic32mx/lib\libpic32.a(default-bootstrap-exception-handler.o)
 .debug_info    0x00046bd4       0xcd c:/program files/microchip/xc32/v2.40/bin/bin/../../lib/gcc/pic32mx/4.8.3/../../../../pic32mx/lib\libpic32.a(default-on-reset.o)
 .debug_info    0x00046ca1       0xd5 c:/program files/microchip/xc32/v2.40/bin/bin/../../lib/gcc/pic32mx/4.8.3/../../../../pic32mx/lib\libpic32.a(default-on-bootstrap.o)
 .debug_info    0x00046d76       0xe7 c:/program files/microchip/xc32/v2.40/bin/bin/../../lib/gcc/pic32mx/4.8.3/../../../../pic32mx/lib\libpic32.a(defaultinterrupt.o)
 .debug_info    0x00046e5d       0xf5 c:/program files/microchip/xc32/v2.40/bin/bin/../../lib/gcc/pic32mx/4.8.3/../../../../pic32mx/lib\libc.a(malloc.o)
 .debug_info    0x00046f52       0xc6 c:/program files/microchip/xc32/v2.40/bin/bin/../../lib/gcc/pic32mx/4.8.3/../../../../pic32mx/lib\libc.a(strncmp.o)
 .debug_info    0x00047018       0xc6 c:/program files/microchip/xc32/v2.40/bin/bin/../../lib/gcc/pic32mx/4.8.3/../../../../pic32mx/lib\libc.a(strncpy.o)
 .debug_info    0x000470de       0xc7 c:/program files/microchip/xc32/v2.40/bin/bin/../../lib/gcc/pic32mx/4.8.3/../../../../pic32mx/lib\libc.a(printf_s.eo)
 .debug_info    0x000471a5       0xca c:/program files/microchip/xc32/v2.40/bin/bin/../../lib/gcc/pic32mx/4.8.3/../../../../pic32mx/lib\libc.a(doprnt_s.eo)
 .debug_info    0x0004726f       0xc2 c:/program files/microchip/xc32/v2.40/bin/bin/../../lib/gcc/pic32mx/4.8.3/../../../../pic32mx/lib\libc.a(_fputc_simple.o)
 .debug_info    0x00047331       0xc5 c:/program files/microchip/xc32/v2.40/bin/bin/../../lib/gcc/pic32mx/4.8.3/../../../../pic32mx/lib\libc.a(_flsbuf_simple.o)
 .debug_info    0x000473f6      0x788 c:/program files/microchip/xc32/v2.40/bin/bin/../../lib/gcc/pic32mx/4.8.3\libgcc.a(_umoddi3.o)
 .debug_info    0x00047b7e      0x131 c:/program files/microchip/xc32/v2.40/bin/bin/../../lib/gcc/pic32mx/4.8.3/../../../../pic32mx/lib\libpic32.a(sbrk.o)
 .debug_info    0x00047caf       0xbf c:/program files/microchip/xc32/v2.40/bin/bin/../../lib/gcc/pic32mx/4.8.3/../../../../pic32mx/lib\libpic32.a(write.o)
 .debug_info    0x00047d6e       0xc7 c:/program files/microchip/xc32/v2.40/bin/bin/../../lib/gcc/pic32mx/4.8.3/../../../../pic32mx/lib\libpic32.a(_mon_putc.o)

.debug_abbrev   0x00000000     0x4999
 *(.debug_abbrev)
 .debug_abbrev  0x00000000      0x290 build/default/production/_ext/1360937237/app.o
 .debug_abbrev  0x00000290       0x93 build/default/production/_ext/1360937237/main.o
 .debug_abbrev  0x00000323      0x4d7 build/default/production/_ext/1475996069/drv_tmr.o
 .debug_abbrev  0x000007fa      0x455 build/default/production/_ext/2105109636/sys_fs.o
 .debug_abbrev  0x00000c4f      0x494 build/default/production/_ext/2105109636/sys_fs_media_manager.o
 .debug_abbrev  0x000010e3      0x372 build/default/production/_ext/312387365/ff.o
 .debug_abbrev  0x00001455      0x202 build/default/production/_ext/456076708/diskio.o
 .debug_abbrev  0x00001657      0x237 build/default/production/_ext/1020727214/sys_int_pic32.o
 .debug_abbrev  0x0000188e      0x500 build/default/production/_ext/121402492/sys_tmr.o
 .debug_abbrev  0x00001d8e      0x447 build/default/production/_ext/1150371026/drv_usbfs.o
 .debug_abbrev  0x000021d5      0x540 build/default/production/_ext/1699675045/usb_host.o
 .debug_abbrev  0x00002715      0x4c7 build/default/production/_ext/1150371026/drv_usbfs_host.o
 .debug_abbrev  0x00002bdc      0x41a build/default/production/_ext/1699675045/usb_host_msd.o
 .debug_abbrev  0x00002ff6      0x34d build/default/production/_ext/1699675045/usb_host_scsi.o
 .debug_abbrev  0x00003343      0x26b build/default/production/_ext/639803181/sys_clk_pic32mx.o
 .debug_abbrev  0x000035ae      0x27b build/default/production/_ext/340578644/sys_devcon.o
 .debug_abbrev  0x00003829      0x20f build/default/production/_ext/340578644/sys_devcon_pic32mx.o
 .debug_abbrev  0x00003a38      0x279 build/default/production/_ext/822048611/sys_ports_static.o
 .debug_abbrev  0x00003cb1      0x18d build/default/production/_ext/74298950/bsp.o
 .debug_abbrev  0x00003e3e      0x320 build/default/production/_ext/1688732426/system_init.o
 .debug_abbrev  0x0000415e      0x11a build/default/production/_ext/1688732426/system_interrupt.o
 .debug_abbrev  0x00004278       0xfc build/default/production/_ext/1688732426/system_exceptions.o
 .debug_abbrev  0x00004374      0x12b build/default/production/_ext/1688732426/system_tasks.o
 .debug_abbrev  0x0000449f      0x138 c:/program files/microchip/xc32/v2.40/bin/bin/../../lib/gcc/pic32mx/4.8.3\libgcc.a(_udivdi3.o)
 .debug_abbrev  0x000045d7       0x28 c:/program files/microchip/xc32/v2.40/bin/bin/../../lib/gcc/pic32mx/4.8.3/../../../../pic32mx/lib\libpic32.a(default-bootstrap-exception-handler.o)
 .debug_abbrev  0x000045ff       0x28 c:/program files/microchip/xc32/v2.40/bin/bin/../../lib/gcc/pic32mx/4.8.3/../../../../pic32mx/lib\libpic32.a(default-on-reset.o)
 .debug_abbrev  0x00004627       0x28 c:/program files/microchip/xc32/v2.40/bin/bin/../../lib/gcc/pic32mx/4.8.3/../../../../pic32mx/lib\libpic32.a(default-on-bootstrap.o)
 .debug_abbrev  0x0000464f       0x28 c:/program files/microchip/xc32/v2.40/bin/bin/../../lib/gcc/pic32mx/4.8.3/../../../../pic32mx/lib\libpic32.a(defaultinterrupt.o)
 .debug_abbrev  0x00004677       0x47 c:/program files/microchip/xc32/v2.40/bin/bin/../../lib/gcc/pic32mx/4.8.3/../../../../pic32mx/lib\libc.a(malloc.o)
 .debug_abbrev  0x000046be       0x28 c:/program files/microchip/xc32/v2.40/bin/bin/../../lib/gcc/pic32mx/4.8.3/../../../../pic32mx/lib\libc.a(strncmp.o)
 .debug_abbrev  0x000046e6       0x28 c:/program files/microchip/xc32/v2.40/bin/bin/../../lib/gcc/pic32mx/4.8.3/../../../../pic32mx/lib\libc.a(strncpy.o)
 .debug_abbrev  0x0000470e       0x28 c:/program files/microchip/xc32/v2.40/bin/bin/../../lib/gcc/pic32mx/4.8.3/../../../../pic32mx/lib\libc.a(printf_s.eo)
 .debug_abbrev  0x00004736       0x28 c:/program files/microchip/xc32/v2.40/bin/bin/../../lib/gcc/pic32mx/4.8.3/../../../../pic32mx/lib\libc.a(doprnt_s.eo)
 .debug_abbrev  0x0000475e       0x28 c:/program files/microchip/xc32/v2.40/bin/bin/../../lib/gcc/pic32mx/4.8.3/../../../../pic32mx/lib\libc.a(_fputc_simple.o)
 .debug_abbrev  0x00004786       0x28 c:/program files/microchip/xc32/v2.40/bin/bin/../../lib/gcc/pic32mx/4.8.3/../../../../pic32mx/lib\libc.a(_flsbuf_simple.o)
 .debug_abbrev  0x000047ae      0x147 c:/program files/microchip/xc32/v2.40/bin/bin/../../lib/gcc/pic32mx/4.8.3\libgcc.a(_umoddi3.o)
 .debug_abbrev  0x000048f5       0x54 c:/program files/microchip/xc32/v2.40/bin/bin/../../lib/gcc/pic32mx/4.8.3/../../../../pic32mx/lib\libpic32.a(sbrk.o)
 .debug_abbrev  0x00004949       0x28 c:/program files/microchip/xc32/v2.40/bin/bin/../../lib/gcc/pic32mx/4.8.3/../../../../pic32mx/lib\libpic32.a(write.o)
 .debug_abbrev  0x00004971       0x28 c:/program files/microchip/xc32/v2.40/bin/bin/../../lib/gcc/pic32mx/4.8.3/../../../../pic32mx/lib\libpic32.a(_mon_putc.o)

.debug_line     0x00000000     0xa99a
 *(.debug_line)
 .debug_line    0x00000000      0x3cb build/default/production/_ext/1360937237/app.o
 .debug_line    0x000003cb       0xca build/default/production/_ext/1360937237/main.o
 .debug_line    0x00000495      0xc54 build/default/production/_ext/1475996069/drv_tmr.o
 .debug_line    0x000010e9      0xd67 build/default/production/_ext/2105109636/sys_fs.o
 .debug_line    0x00001e50      0x637 build/default/production/_ext/2105109636/sys_fs_media_manager.o
 .debug_line    0x00002487     0x10df build/default/production/_ext/312387365/ff.o
 .debug_line    0x00003566      0x230 build/default/production/_ext/456076708/diskio.o
 .debug_line    0x00003796      0x2e9 build/default/production/_ext/1020727214/sys_int_pic32.o
 .debug_line    0x00003a7f      0x669 build/default/production/_ext/121402492/sys_tmr.o
 .debug_line    0x000040e8      0x763 build/default/production/_ext/1150371026/drv_usbfs.o
 .debug_line    0x0000484b     0x1138 build/default/production/_ext/1699675045/usb_host.o
 .debug_line    0x00005983     0x100a build/default/production/_ext/1150371026/drv_usbfs_host.o
 .debug_line    0x0000698d      0x677 build/default/production/_ext/1699675045/usb_host_msd.o
 .debug_line    0x00007004      0x6b4 build/default/production/_ext/1699675045/usb_host_scsi.o
 .debug_line    0x000076b8      0x435 build/default/production/_ext/639803181/sys_clk_pic32mx.o
 .debug_line    0x00007aed      0x660 build/default/production/_ext/340578644/sys_devcon.o
 .debug_line    0x0000814d      0x4b1 build/default/production/_ext/340578644/sys_devcon_pic32mx.o
 .debug_line    0x000085fe      0x78f build/default/production/_ext/822048611/sys_ports_static.o
 .debug_line    0x00008d8d      0x296 build/default/production/_ext/74298950/bsp.o
 .debug_line    0x00009023      0x854 build/default/production/_ext/1688732426/system_init.o
 .debug_line    0x00009877      0x263 build/default/production/_ext/1688732426/system_interrupt.o
 .debug_line    0x00009ada      0x22f build/default/production/_ext/1688732426/system_exceptions.o
 .debug_line    0x00009d09      0x30e build/default/production/_ext/1688732426/system_tasks.o
 .debug_line    0x0000a017       0xf7 c:/program files/microchip/xc32/v2.40/bin/bin/../../lib/gcc/pic32mx/4.8.3\libgcc.a(_udivdi3.o)
 .debug_line    0x0000a10e       0xa6 c:/program files/microchip/xc32/v2.40/bin/bin/../../lib/gcc/pic32mx/4.8.3/../../../../pic32mx/lib\libpic32.a(default-bootstrap-exception-handler.o)
 .debug_line    0x0000a1b4       0x93 c:/program files/microchip/xc32/v2.40/bin/bin/../../lib/gcc/pic32mx/4.8.3/../../../../pic32mx/lib\libpic32.a(default-on-reset.o)
 .debug_line    0x0000a247       0x97 c:/program files/microchip/xc32/v2.40/bin/bin/../../lib/gcc/pic32mx/4.8.3/../../../../pic32mx/lib\libpic32.a(default-on-bootstrap.o)
 .debug_line    0x0000a2de       0xa5 c:/program files/microchip/xc32/v2.40/bin/bin/../../lib/gcc/pic32mx/4.8.3/../../../../pic32mx/lib\libpic32.a(defaultinterrupt.o)
 .debug_line    0x0000a383       0x7e c:/program files/microchip/xc32/v2.40/bin/bin/../../lib/gcc/pic32mx/4.8.3/../../../../pic32mx/lib\libc.a(malloc.o)
 .debug_line    0x0000a401       0x7f c:/program files/microchip/xc32/v2.40/bin/bin/../../lib/gcc/pic32mx/4.8.3/../../../../pic32mx/lib\libc.a(strncmp.o)
 .debug_line    0x0000a480       0x7f c:/program files/microchip/xc32/v2.40/bin/bin/../../lib/gcc/pic32mx/4.8.3/../../../../pic32mx/lib\libc.a(strncpy.o)
 .debug_line    0x0000a4ff       0x7e c:/program files/microchip/xc32/v2.40/bin/bin/../../lib/gcc/pic32mx/4.8.3/../../../../pic32mx/lib\libc.a(printf_s.eo)
 .debug_line    0x0000a57d        0x0 c:/program files/microchip/xc32/v2.40/bin/bin/../../lib/gcc/pic32mx/4.8.3/../../../../pic32mx/lib\libc.a(_iob.o)
 .debug_line    0x0000a57d       0x7e c:/program files/microchip/xc32/v2.40/bin/bin/../../lib/gcc/pic32mx/4.8.3/../../../../pic32mx/lib\libc.a(doprnt_s.eo)
 .debug_line    0x0000a5fb       0x7d c:/program files/microchip/xc32/v2.40/bin/bin/../../lib/gcc/pic32mx/4.8.3/../../../../pic32mx/lib\libc.a(_fputc_simple.o)
 .debug_line    0x0000a678        0x0 c:/program files/microchip/xc32/v2.40/bin/bin/../../lib/gcc/pic32mx/4.8.3/../../../../pic32mx/lib\libc.a(ctype.o)
 .debug_line    0x0000a678       0x7e c:/program files/microchip/xc32/v2.40/bin/bin/../../lib/gcc/pic32mx/4.8.3/../../../../pic32mx/lib\libc.a(_flsbuf_simple.o)
 .debug_line    0x0000a6f6      0x109 c:/program files/microchip/xc32/v2.40/bin/bin/../../lib/gcc/pic32mx/4.8.3\libgcc.a(_umoddi3.o)
 .debug_line    0x0000a7ff       0x87 c:/program files/microchip/xc32/v2.40/bin/bin/../../lib/gcc/pic32mx/4.8.3/../../../../pic32mx/lib\libpic32.a(sbrk.o)
 .debug_line    0x0000a886       0x88 c:/program files/microchip/xc32/v2.40/bin/bin/../../lib/gcc/pic32mx/4.8.3/../../../../pic32mx/lib\libpic32.a(write.o)
 .debug_line    0x0000a90e        0x0 c:/program files/microchip/xc32/v2.40/bin/bin/../../lib/gcc/pic32mx/4.8.3/../../../../pic32mx/lib\libpic32.a(errno.o)
 .debug_line    0x0000a90e       0x8c c:/program files/microchip/xc32/v2.40/bin/bin/../../lib/gcc/pic32mx/4.8.3/../../../../pic32mx/lib\libpic32.a(_mon_putc.o)
 .debug_line    0x0000a99a        0x0 c:/program files/microchip/xc32/v2.40/bin/bin/../../lib/gcc/pic32mx/4.8.3/../../../../pic32mx/lib\libpic32.a(xc32_uart.o)

.debug_frame    0x00000000     0x2d08
 *(.debug_frame)
 .debug_frame   0x00000000       0x60 build/default/production/_ext/1360937237/app.o
 .debug_frame   0x00000060       0x28 build/default/production/_ext/1360937237/main.o
 .debug_frame   0x00000088      0x2f0 build/default/production/_ext/1475996069/drv_tmr.o
 .debug_frame   0x00000378      0x52c build/default/production/_ext/2105109636/sys_fs.o
 .debug_frame   0x000008a4      0x1f8 build/default/production/_ext/2105109636/sys_fs_media_manager.o
 .debug_frame   0x00000a9c      0x850 build/default/production/_ext/312387365/ff.o
 .debug_frame   0x000012ec       0xbc build/default/production/_ext/456076708/diskio.o
 .debug_frame   0x000013a8       0xa0 build/default/production/_ext/1020727214/sys_int_pic32.o
 .debug_frame   0x00001448      0x284 build/default/production/_ext/121402492/sys_tmr.o
 .debug_frame   0x000016cc       0xcc build/default/production/_ext/1150371026/drv_usbfs.o
 .debug_frame   0x00001798      0x5c4 build/default/production/_ext/1699675045/usb_host.o
 .debug_frame   0x00001d5c      0x288 build/default/production/_ext/1150371026/drv_usbfs_host.o
 .debug_frame   0x00001fe4      0x1a8 build/default/production/_ext/1699675045/usb_host_msd.o
 .debug_frame   0x0000218c      0x234 build/default/production/_ext/1699675045/usb_host_scsi.o
 .debug_frame   0x000023c0       0xa4 build/default/production/_ext/639803181/sys_clk_pic32mx.o
 .debug_frame   0x00002464       0xf4 build/default/production/_ext/340578644/sys_devcon.o
 .debug_frame   0x00002558       0x2c build/default/production/_ext/340578644/sys_devcon_pic32mx.o
 .debug_frame   0x00002584      0x270 build/default/production/_ext/822048611/sys_ports_static.o
 .debug_frame   0x000027f4       0x60 build/default/production/_ext/74298950/bsp.o
 .debug_frame   0x00002854       0x34 build/default/production/_ext/1688732426/system_init.o
 .debug_frame   0x00002888       0xc0 build/default/production/_ext/1688732426/system_interrupt.o
 .debug_frame   0x00002948       0x28 build/default/production/_ext/1688732426/system_exceptions.o
 .debug_frame   0x00002970       0x2c build/default/production/_ext/1688732426/system_tasks.o
 .debug_frame   0x0000299c       0x20 c:/program files/microchip/xc32/v2.40/bin/bin/../../lib/gcc/pic32mx/4.8.3\libgcc.a(_udivdi3.o)
 .debug_frame   0x000029bc       0x2c c:/program files/microchip/xc32/v2.40/bin/bin/../../lib/gcc/pic32mx/4.8.3/../../../../pic32mx/lib\libpic32.a(default-bootstrap-exception-handler.o)
 .debug_frame   0x000029e8       0x20 c:/program files/microchip/xc32/v2.40/bin/bin/../../lib/gcc/pic32mx/4.8.3/../../../../pic32mx/lib\libpic32.a(default-on-reset.o)
 .debug_frame   0x00002a08       0x20 c:/program files/microchip/xc32/v2.40/bin/bin/../../lib/gcc/pic32mx/4.8.3/../../../../pic32mx/lib\libpic32.a(default-on-bootstrap.o)
 .debug_frame   0x00002a28       0x20 c:/program files/microchip/xc32/v2.40/bin/bin/../../lib/gcc/pic32mx/4.8.3/../../../../pic32mx/lib\libpic32.a(defaultinterrupt.o)
 .debug_frame   0x00002a48       0x7c c:/program files/microchip/xc32/v2.40/bin/bin/../../lib/gcc/pic32mx/4.8.3/../../../../pic32mx/lib\libc.a(malloc.o)
 .debug_frame   0x00002ac4       0x20 c:/program files/microchip/xc32/v2.40/bin/bin/../../lib/gcc/pic32mx/4.8.3/../../../../pic32mx/lib\libc.a(strncmp.o)
 .debug_frame   0x00002ae4       0x20 c:/program files/microchip/xc32/v2.40/bin/bin/../../lib/gcc/pic32mx/4.8.3/../../../../pic32mx/lib\libc.a(strncpy.o)
 .debug_frame   0x00002b04       0x2c c:/program files/microchip/xc32/v2.40/bin/bin/../../lib/gcc/pic32mx/4.8.3/../../../../pic32mx/lib\libc.a(printf_s.eo)
 .debug_frame   0x00002b30       0x48 c:/program files/microchip/xc32/v2.40/bin/bin/../../lib/gcc/pic32mx/4.8.3/../../../../pic32mx/lib\libc.a(doprnt_s.eo)
 .debug_frame   0x00002b78       0x30 c:/program files/microchip/xc32/v2.40/bin/bin/../../lib/gcc/pic32mx/4.8.3/../../../../pic32mx/lib\libc.a(_fputc_simple.o)
 .debug_frame   0x00002ba8       0x38 c:/program files/microchip/xc32/v2.40/bin/bin/../../lib/gcc/pic32mx/4.8.3/../../../../pic32mx/lib\libc.a(_flsbuf_simple.o)
 .debug_frame   0x00002be0       0x20 c:/program files/microchip/xc32/v2.40/bin/bin/../../lib/gcc/pic32mx/4.8.3\libgcc.a(_umoddi3.o)
 .debug_frame   0x00002c00       0xa4 c:/program files/microchip/xc32/v2.40/bin/bin/../../lib/gcc/pic32mx/4.8.3/../../../../pic32mx/lib\libpic32.a(sbrk.o)
 .debug_frame   0x00002ca4       0x38 c:/program files/microchip/xc32/v2.40/bin/bin/../../lib/gcc/pic32mx/4.8.3/../../../../pic32mx/lib\libpic32.a(write.o)
 .debug_frame   0x00002cdc       0x2c c:/program files/microchip/xc32/v2.40/bin/bin/../../lib/gcc/pic32mx/4.8.3/../../../../pic32mx/lib\libpic32.a(_mon_putc.o)

.debug_str      0x00000000      0xe5d
 *(.debug_str)
 .debug_str     0x00000000       0x15 build/default/production/_ext/1360937237/app.o
 .debug_str     0x00000015        0x0 build/default/production/_ext/1360937237/main.o
 .debug_str     0x00000015       0xc6 build/default/production/_ext/1475996069/drv_tmr.o
 .debug_str     0x000000db       0xc1 build/default/production/_ext/2105109636/sys_fs.o
 .debug_str     0x0000019c       0xe7 build/default/production/_ext/2105109636/sys_fs_media_manager.o
 .debug_str     0x00000283       0x23 build/default/production/_ext/312387365/ff.o
 .debug_str     0x000002a6       0x16 build/default/production/_ext/456076708/diskio.o
 .debug_str     0x000002bc       0x1d build/default/production/_ext/1020727214/sys_int_pic32.o
 .debug_str     0x000002d9       0x7d build/default/production/_ext/121402492/sys_tmr.o
 .debug_str     0x00000356      0x101 build/default/production/_ext/1150371026/drv_usbfs.o
 .debug_str     0x00000457      0x415 build/default/production/_ext/1699675045/usb_host.o
 .debug_str     0x0000086c      0x29e build/default/production/_ext/1150371026/drv_usbfs_host.o
 .debug_str     0x00000b0a      0x188 build/default/production/_ext/1699675045/usb_host_msd.o
 .debug_str     0x00000c92       0xbd build/default/production/_ext/1699675045/usb_host_scsi.o
 .debug_str     0x00000d4f       0x39 build/default/production/_ext/639803181/sys_clk_pic32mx.o
 .debug_str     0x00000d88       0x16 build/default/production/_ext/340578644/sys_devcon.o
 .debug_str     0x00000d9e        0x6 build/default/production/_ext/340578644/sys_devcon_pic32mx.o
 .debug_str     0x00000da4       0x55 build/default/production/_ext/822048611/sys_ports_static.o
 .debug_str     0x00000df9       0x15 build/default/production/_ext/74298950/bsp.o
 .debug_str     0x00000e0e       0x4f build/default/production/_ext/1688732426/system_init.o
 .debug_str     0x00000e5d        0x0 build/default/production/_ext/1688732426/system_interrupt.o
 .debug_str     0x00000e5d        0x0 build/default/production/_ext/1688732426/system_exceptions.o
 .debug_str     0x00000e5d        0x0 build/default/production/_ext/1688732426/system_tasks.o
 .debug_str     0x00000e5d        0x0 c:/program files/microchip/xc32/v2.40/bin/bin/../../lib/gcc/pic32mx/4.8.3\libgcc.a(_udivdi3.o)
 .debug_str     0x00000e5d        0x0 c:/program files/microchip/xc32/v2.40/bin/bin/../../lib/gcc/pic32mx/4.8.3/../../../../pic32mx/lib\libpic32.a(default-bootstrap-exception-handler.o)
 .debug_str     0x00000e5d        0x0 c:/program files/microchip/xc32/v2.40/bin/bin/../../lib/gcc/pic32mx/4.8.3/../../../../pic32mx/lib\libpic32.a(default-on-reset.o)
 .debug_str     0x00000e5d        0x0 c:/program files/microchip/xc32/v2.40/bin/bin/../../lib/gcc/pic32mx/4.8.3/../../../../pic32mx/lib\libpic32.a(default-on-bootstrap.o)
 .debug_str     0x00000e5d        0x0 c:/program files/microchip/xc32/v2.40/bin/bin/../../lib/gcc/pic32mx/4.8.3/../../../../pic32mx/lib\libpic32.a(defaultinterrupt.o)
 .debug_str     0x00000e5d        0x0 c:/program files/microchip/xc32/v2.40/bin/bin/../../lib/gcc/pic32mx/4.8.3/../../../../pic32mx/lib\libc.a(malloc.o)
 .debug_str     0x00000e5d        0x0 c:/program files/microchip/xc32/v2.40/bin/bin/../../lib/gcc/pic32mx/4.8.3/../../../../pic32mx/lib\libc.a(strncmp.o)
 .debug_str     0x00000e5d        0x0 c:/program files/microchip/xc32/v2.40/bin/bin/../../lib/gcc/pic32mx/4.8.3/../../../../pic32mx/lib\libc.a(strncpy.o)
 .debug_str     0x00000e5d        0x0 c:/program files/microchip/xc32/v2.40/bin/bin/../../lib/gcc/pic32mx/4.8.3/../../../../pic32mx/lib\libc.a(printf_s.eo)
 .debug_str     0x00000e5d        0x0 c:/program files/microchip/xc32/v2.40/bin/bin/../../lib/gcc/pic32mx/4.8.3/../../../../pic32mx/lib\libc.a(_iob.o)
 .debug_str     0x00000e5d        0x0 c:/program files/microchip/xc32/v2.40/bin/bin/../../lib/gcc/pic32mx/4.8.3/../../../../pic32mx/lib\libc.a(doprnt_s.eo)
 .debug_str     0x00000e5d        0x0 c:/program files/microchip/xc32/v2.40/bin/bin/../../lib/gcc/pic32mx/4.8.3/../../../../pic32mx/lib\libc.a(_fputc_simple.o)
 .debug_str     0x00000e5d        0x0 c:/program files/microchip/xc32/v2.40/bin/bin/../../lib/gcc/pic32mx/4.8.3/../../../../pic32mx/lib\libc.a(ctype.o)
 .debug_str     0x00000e5d        0x0 c:/program files/microchip/xc32/v2.40/bin/bin/../../lib/gcc/pic32mx/4.8.3/../../../../pic32mx/lib\libc.a(_flsbuf_simple.o)
 .debug_str     0x00000e5d        0x0 c:/program files/microchip/xc32/v2.40/bin/bin/../../lib/gcc/pic32mx/4.8.3\libgcc.a(_umoddi3.o)
 .debug_str     0x00000e5d        0x0 c:/program files/microchip/xc32/v2.40/bin/bin/../../lib/gcc/pic32mx/4.8.3/../../../../pic32mx/lib\libpic32.a(sbrk.o)
 .debug_str     0x00000e5d        0x0 c:/program files/microchip/xc32/v2.40/bin/bin/../../lib/gcc/pic32mx/4.8.3/../../../../pic32mx/lib\libpic32.a(write.o)
 .debug_str     0x00000e5d        0x0 c:/program files/microchip/xc32/v2.40/bin/bin/../../lib/gcc/pic32mx/4.8.3/../../../../pic32mx/lib\libpic32.a(errno.o)
 .debug_str     0x00000e5d        0x0 c:/program files/microchip/xc32/v2.40/bin/bin/../../lib/gcc/pic32mx/4.8.3/../../../../pic32mx/lib\libpic32.a(_mon_putc.o)
 .debug_str     0x00000e5d        0x0 c:/program files/microchip/xc32/v2.40/bin/bin/../../lib/gcc/pic32mx/4.8.3/../../../../pic32mx/lib\libpic32.a(xc32_uart.o)

.debug_loc      0x00000000    0x1912e
 *(.debug_loc)
 .debug_loc     0x00000000       0xa0 build/default/production/_ext/1360937237/app.o
 .debug_loc     0x000000a0     0x1907 build/default/production/_ext/1475996069/drv_tmr.o
 .debug_loc     0x000019a7     0x32d1 build/default/production/_ext/2105109636/sys_fs.o
 .debug_loc     0x00004c78      0xd81 build/default/production/_ext/2105109636/sys_fs_media_manager.o
 .debug_loc     0x000059f9     0x655c build/default/production/_ext/312387365/ff.o
 .debug_loc     0x0000bf55      0x262 build/default/production/_ext/456076708/diskio.o
 .debug_loc     0x0000c1b7       0x7c build/default/production/_ext/1020727214/sys_int_pic32.o
 .debug_loc     0x0000c233      0xe68 build/default/production/_ext/121402492/sys_tmr.o
 .debug_loc     0x0000d09b      0x4ec build/default/production/_ext/1150371026/drv_usbfs.o
 .debug_loc     0x0000d587     0x4a4d build/default/production/_ext/1699675045/usb_host.o
 .debug_loc     0x00011fd4     0x3708 build/default/production/_ext/1150371026/drv_usbfs_host.o
 .debug_loc     0x000156dc     0x106e build/default/production/_ext/1699675045/usb_host_msd.o
 .debug_loc     0x0001674a      0xad0 build/default/production/_ext/1699675045/usb_host_scsi.o
 .debug_loc     0x0001721a       0x49 build/default/production/_ext/639803181/sys_clk_pic32mx.o
 .debug_loc     0x00017263       0xf0 build/default/production/_ext/340578644/sys_devcon.o
 .debug_loc     0x00017353       0xda build/default/production/_ext/340578644/sys_devcon_pic32mx.o
 .debug_loc     0x0001742d      0x73d build/default/production/_ext/822048611/sys_ports_static.o
 .debug_loc     0x00017b6a       0x21 build/default/production/_ext/1688732426/system_init.o
 .debug_loc     0x00017b8b      0xa6a c:/program files/microchip/xc32/v2.40/bin/bin/../../lib/gcc/pic32mx/4.8.3\libgcc.a(_udivdi3.o)
 .debug_loc     0x000185f5       0x2c c:/program files/microchip/xc32/v2.40/bin/bin/../../lib/gcc/pic32mx/4.8.3/../../../../pic32mx/lib\libpic32.a(default-bootstrap-exception-handler.o)
 .debug_loc     0x00018621      0xa3d c:/program files/microchip/xc32/v2.40/bin/bin/../../lib/gcc/pic32mx/4.8.3\libgcc.a(_umoddi3.o)
 .debug_loc     0x0001905e       0x78 c:/program files/microchip/xc32/v2.40/bin/bin/../../lib/gcc/pic32mx/4.8.3/../../../../pic32mx/lib\libpic32.a(sbrk.o)
 .debug_loc     0x000190d6       0x38 c:/program files/microchip/xc32/v2.40/bin/bin/../../lib/gcc/pic32mx/4.8.3/../../../../pic32mx/lib\libpic32.a(write.o)
 .debug_loc     0x0001910e       0x20 c:/program files/microchip/xc32/v2.40/bin/bin/../../lib/gcc/pic32mx/4.8.3/../../../../pic32mx/lib\libpic32.a(_mon_putc.o)

.debug_macinfo
 *(.debug_macinfo)

.debug_weaknames
 *(.debug_weaknames)

.debug_funcnames
 *(.debug_funcnames)

.debug_typenames
 *(.debug_typenames)

.debug_varnames
 *(.debug_varnames)

.debug_pubtypes
 *(.debug_pubtypes)

.debug_ranges   0x00000000     0x1558
 *(.debug_ranges)
 .debug_ranges  0x00000000       0x28 build/default/production/_ext/1360937237/app.o
 .debug_ranges  0x00000028       0x10 build/default/production/_ext/1360937237/main.o
 .debug_ranges  0x00000038      0x240 build/default/production/_ext/1475996069/drv_tmr.o
 .debug_ranges  0x00000278      0x218 build/default/production/_ext/2105109636/sys_fs.o
 .debug_ranges  0x00000490      0x150 build/default/production/_ext/2105109636/sys_fs_media_manager.o
 .debug_ranges  0x000005e0      0x3f8 build/default/production/_ext/312387365/ff.o
 .debug_ranges  0x000009d8       0x40 build/default/production/_ext/456076708/diskio.o
 .debug_ranges  0x00000a18       0x50 build/default/production/_ext/1020727214/sys_int_pic32.o
 .debug_ranges  0x00000a68      0x148 build/default/production/_ext/121402492/sys_tmr.o
 .debug_ranges  0x00000bb0       0x50 build/default/production/_ext/1150371026/drv_usbfs.o
 .debug_ranges  0x00000c00      0x230 build/default/production/_ext/1699675045/usb_host.o
 .debug_ranges  0x00000e30       0xe8 build/default/production/_ext/1150371026/drv_usbfs_host.o
 .debug_ranges  0x00000f18       0x88 build/default/production/_ext/1699675045/usb_host_msd.o
 .debug_ranges  0x00000fa0       0xd0 build/default/production/_ext/1699675045/usb_host_scsi.o
 .debug_ranges  0x00001070       0x40 build/default/production/_ext/639803181/sys_clk_pic32mx.o
 .debug_ranges  0x000010b0       0x68 build/default/production/_ext/340578644/sys_devcon.o
 .debug_ranges  0x00001118       0x10 build/default/production/_ext/340578644/sys_devcon_pic32mx.o
 .debug_ranges  0x00001128      0x138 build/default/production/_ext/822048611/sys_ports_static.o
 .debug_ranges  0x00001260       0x30 build/default/production/_ext/74298950/bsp.o
 .debug_ranges  0x00001290       0x10 build/default/production/_ext/1688732426/system_init.o
 .debug_ranges  0x000012a0       0x18 build/default/production/_ext/1688732426/system_interrupt.o
 .debug_ranges  0x000012b8       0x10 build/default/production/_ext/1688732426/system_exceptions.o
 .debug_ranges  0x000012c8       0x10 build/default/production/_ext/1688732426/system_tasks.o
 .debug_ranges  0x000012d8       0x98 c:/program files/microchip/xc32/v2.40/bin/bin/../../lib/gcc/pic32mx/4.8.3\libgcc.a(_udivdi3.o)
 .debug_ranges  0x00001370       0x10 c:/program files/microchip/xc32/v2.40/bin/bin/../../lib/gcc/pic32mx/4.8.3/../../../../pic32mx/lib\libpic32.a(default-bootstrap-exception-handler.o)
 .debug_ranges  0x00001380       0x10 c:/program files/microchip/xc32/v2.40/bin/bin/../../lib/gcc/pic32mx/4.8.3/../../../../pic32mx/lib\libpic32.a(default-on-reset.o)
 .debug_ranges  0x00001390       0x10 c:/program files/microchip/xc32/v2.40/bin/bin/../../lib/gcc/pic32mx/4.8.3/../../../../pic32mx/lib\libpic32.a(default-on-bootstrap.o)
 .debug_ranges  0x000013a0       0x10 c:/program files/microchip/xc32/v2.40/bin/bin/../../lib/gcc/pic32mx/4.8.3/../../../../pic32mx/lib\libpic32.a(defaultinterrupt.o)
 .debug_ranges  0x000013b0       0x20 c:/program files/microchip/xc32/v2.40/bin/bin/../../lib/gcc/pic32mx/4.8.3/../../../../pic32mx/lib\libc.a(malloc.o)
 .debug_ranges  0x000013d0       0x10 c:/program files/microchip/xc32/v2.40/bin/bin/../../lib/gcc/pic32mx/4.8.3/../../../../pic32mx/lib\libc.a(strncmp.o)
 .debug_ranges  0x000013e0       0x10 c:/program files/microchip/xc32/v2.40/bin/bin/../../lib/gcc/pic32mx/4.8.3/../../../../pic32mx/lib\libc.a(strncpy.o)
 .debug_ranges  0x000013f0       0x10 c:/program files/microchip/xc32/v2.40/bin/bin/../../lib/gcc/pic32mx/4.8.3/../../../../pic32mx/lib\libc.a(printf_s.eo)
 .debug_ranges  0x00001400       0x10 c:/program files/microchip/xc32/v2.40/bin/bin/../../lib/gcc/pic32mx/4.8.3/../../../../pic32mx/lib\libc.a(doprnt_s.eo)
 .debug_ranges  0x00001410       0x10 c:/program files/microchip/xc32/v2.40/bin/bin/../../lib/gcc/pic32mx/4.8.3/../../../../pic32mx/lib\libc.a(_fputc_simple.o)
 .debug_ranges  0x00001420       0x10 c:/program files/microchip/xc32/v2.40/bin/bin/../../lib/gcc/pic32mx/4.8.3/../../../../pic32mx/lib\libc.a(_flsbuf_simple.o)
 .debug_ranges  0x00001430       0xd8 c:/program files/microchip/xc32/v2.40/bin/bin/../../lib/gcc/pic32mx/4.8.3\libgcc.a(_umoddi3.o)
 .debug_ranges  0x00001508       0x30 c:/program files/microchip/xc32/v2.40/bin/bin/../../lib/gcc/pic32mx/4.8.3/../../../../pic32mx/lib\libpic32.a(sbrk.o)
 .debug_ranges  0x00001538       0x10 c:/program files/microchip/xc32/v2.40/bin/bin/../../lib/gcc/pic32mx/4.8.3/../../../../pic32mx/lib\libpic32.a(write.o)
 .debug_ranges  0x00001548       0x10 c:/program files/microchip/xc32/v2.40/bin/bin/../../lib/gcc/pic32mx/4.8.3/../../../../pic32mx/lib\libpic32.a(_mon_putc.o)

.gnu.attributes
                0x00000000       0x10
 *(.gnu.attributes)
 .gnu.attributes
                0x00000000       0x10 build/default/production/_ext/1360937237/app.o
 .gnu.attributes
                0x00000010       0x10 build/default/production/_ext/1360937237/main.o
 .gnu.attributes
                0x00000020       0x10 build/default/production/_ext/1475996069/drv_tmr.o
 .gnu.attributes
                0x00000030       0x10 build/default/production/_ext/2105109636/sys_fs.o
 .gnu.attributes
                0x00000040       0x10 build/default/production/_ext/2105109636/sys_fs_media_manager.o
 .gnu.attributes
                0x00000050       0x10 build/default/production/_ext/312387365/ff.o
 .gnu.attributes
                0x00000060       0x10 build/default/production/_ext/456076708/diskio.o
 .gnu.attributes
                0x00000070       0x10 build/default/production/_ext/1020727214/sys_int_pic32.o
 .gnu.attributes
                0x00000080       0x10 build/default/production/_ext/121402492/sys_tmr.o
 .gnu.attributes
                0x00000090       0x10 build/default/production/_ext/1150371026/drv_usbfs.o
 .gnu.attributes
                0x000000a0       0x10 build/default/production/_ext/1699675045/usb_host.o
 .gnu.attributes
                0x000000b0       0x10 build/default/production/_ext/1150371026/drv_usbfs_host.o
 .gnu.attributes
                0x000000c0       0x10 build/default/production/_ext/1699675045/usb_host_msd.o
 .gnu.attributes
                0x000000d0       0x10 build/default/production/_ext/1699675045/usb_host_scsi.o
 .gnu.attributes
                0x000000e0       0x10 build/default/production/_ext/639803181/sys_clk_pic32mx.o
 .gnu.attributes
                0x000000f0       0x10 build/default/production/_ext/340578644/sys_devcon.o
 .gnu.attributes
                0x00000100       0x10 build/default/production/_ext/340578644/sys_devcon_pic32mx.o
 .gnu.attributes
                0x00000110       0x10 build/default/production/_ext/822048611/sys_ports_static.o
 .gnu.attributes
                0x00000120       0x10 build/default/production/_ext/74298950/bsp.o
 .gnu.attributes
                0x00000130       0x10 build/default/production/_ext/1688732426/system_init.o
 .gnu.attributes
                0x00000140       0x10 build/default/production/_ext/1688732426/system_interrupt.o
 .gnu.attributes
                0x00000150       0x10 build/default/production/_ext/1688732426/system_exceptions.o
 .gnu.attributes
                0x00000160       0x10 build/default/production/_ext/1688732426/system_tasks.o
 .gnu.attributes
                0x00000170       0x10 c:/program files/microchip/xc32/v2.40/bin/bin/../../lib/gcc/pic32mx/4.8.3\libgcc.a(_udivdi3.o)
 .gnu.attributes
                0x00000180       0x10 c:/program files/microchip/xc32/v2.40/bin/bin/../../lib/gcc/pic32mx/4.8.3/../../../../pic32mx/lib\libpic32.a(default-bootstrap-exception-handler.o)
 .gnu.attributes
                0x00000190       0x10 c:/program files/microchip/xc32/v2.40/bin/bin/../../lib/gcc/pic32mx/4.8.3/../../../../pic32mx/lib\libpic32.a(default-on-reset.o)
 .gnu.attributes
                0x000001a0       0x10 c:/program files/microchip/xc32/v2.40/bin/bin/../../lib/gcc/pic32mx/4.8.3/../../../../pic32mx/lib\libpic32.a(default-on-bootstrap.o)
 .gnu.attributes
                0x000001b0       0x10 c:/program files/microchip/xc32/v2.40/bin/bin/../../lib/gcc/pic32mx/4.8.3/../../../../pic32mx/lib\libpic32.a(defaultinterrupt.o)
 .gnu.attributes
                0x000001c0       0x10 c:/program files/microchip/xc32/v2.40/bin/bin/../../lib/gcc/pic32mx/4.8.3/../../../../pic32mx/lib\libc.a(malloc.o)
 .gnu.attributes
                0x000001d0       0x10 c:/program files/microchip/xc32/v2.40/bin/bin/../../lib/gcc/pic32mx/4.8.3/../../../../pic32mx/lib\libc.a(strncmp.o)
 .gnu.attributes
                0x000001e0       0x10 c:/program files/microchip/xc32/v2.40/bin/bin/../../lib/gcc/pic32mx/4.8.3/../../../../pic32mx/lib\libc.a(strncpy.o)
 .gnu.attributes
                0x000001f0       0x10 c:/program files/microchip/xc32/v2.40/bin/bin/../../lib/gcc/pic32mx/4.8.3/../../../../pic32mx/lib\libc.a(printf_s.eo)
 .gnu.attributes
                0x00000200       0x10 c:/program files/microchip/xc32/v2.40/bin/bin/../../lib/gcc/pic32mx/4.8.3/../../../../pic32mx/lib\libc.a(_iob.o)
 .gnu.attributes
                0x00000210       0x10 c:/program files/microchip/xc32/v2.40/bin/bin/../../lib/gcc/pic32mx/4.8.3/../../../../pic32mx/lib\libc.a(doprnt_s.eo)
 .gnu.attributes
                0x00000220       0x10 c:/program files/microchip/xc32/v2.40/bin/bin/../../lib/gcc/pic32mx/4.8.3/../../../../pic32mx/lib\libc.a(_fputc_simple.o)
 .gnu.attributes
                0x00000230       0x10 c:/program files/microchip/xc32/v2.40/bin/bin/../../lib/gcc/pic32mx/4.8.3/../../../../pic32mx/lib\libc.a(ctype.o)
 .gnu.attributes
                0x00000240       0x10 c:/program files/microchip/xc32/v2.40/bin/bin/../../lib/gcc/pic32mx/4.8.3/../../../../pic32mx/lib\libc.a(_flsbuf_simple.o)
 .gnu.attributes
                0x00000250       0x10 c:/program files/microchip/xc32/v2.40/bin/bin/../../lib/gcc/pic32mx/4.8.3\libgcc.a(_umoddi3.o)
 .gnu.attributes
                0x00000260       0x10 c:/program files/microchip/xc32/v2.40/bin/bin/../../lib/gcc/pic32mx/4.8.3/../../../../pic32mx/lib\libpic32.a(sbrk.o)
 .gnu.attributes
                0x00000270       0x10 c:/program files/microchip/xc32/v2.40/bin/bin/../../lib/gcc/pic32mx/4.8.3/../../../../pic32mx/lib\libpic32.a(write.o)
 .gnu.attributes
                0x00000280       0x10 c:/program files/microchip/xc32/v2.40/bin/bin/../../lib/gcc/pic32mx/4.8.3/../../../../pic32mx/lib\libpic32.a(errno.o)
 .gnu.attributes
                0x00000290       0x10 c:/program files/microchip/xc32/v2.40/bin/bin/../../lib/gcc/pic32mx/4.8.3/../../../../pic32mx/lib\libpic32.a(_mon_putc.o)
 .gnu.attributes
                0x000002a0       0x10 c:/program files/microchip/xc32/v2.40/bin/bin/../../lib/gcc/pic32mx/4.8.3/../../../../pic32mx/lib\libpic32.a(xc32_uart.o)
LOAD c:/program files/microchip/xc32/v2.40/bin/bin/../../lib/gcc/pic32mx/4.8.3\libgcc.a
START GROUP
LOAD c:/program files/microchip/xc32/v2.40/bin/bin/../../lib/gcc/pic32mx/4.8.3/../../../../pic32mx/lib\libpic32.a
LOAD c:/program files/microchip/xc32/v2.40/bin/bin/../../lib/gcc/pic32mx/4.8.3/../../../../pic32mx/lib\libdebug.a
LOAD c:/program files/microchip/xc32/v2.40/bin/bin/../../lib/gcc/pic32mx/4.8.3/../../../../pic32mx/lib\libpic32.a
LOAD c:/program files/microchip/xc32/v2.40/bin/bin/../../lib/gcc/pic32mx/4.8.3/../../../../pic32mx/lib\libc.a
LOAD c:/program files/microchip/xc32/v2.40/bin/bin/../../lib/gcc/pic32mx/4.8.3/../../../../pic32mx/lib\libc.a
LOAD c:/program files/microchip/xc32/v2.40/bin/bin/../../lib/gcc/pic32mx/4.8.3/../../../../pic32mx/lib\libm.a
LOAD c:/program files/microchip/xc32/v2.40/bin/bin/../../lib/gcc/pic32mx/4.8.3/../../../../pic32mx/lib\libe.a
LOAD c:/program files/microchip/xc32/v2.40/bin/bin/../../lib/gcc/pic32mx/4.8.3/../../../../pic32mx/lib\libdsp.a
LOAD c:/program files/microchip/xc32/v2.40/bin/bin/../../lib/gcc/pic32mx/4.8.3\libgcc.a
LOAD c:/program files/microchip/xc32/v2.40/bin/bin/../../lib/gcc/pic32mx/4.8.3/../../../../pic32mx/lib\libpic32.a
END GROUP
LOAD c:/program files/microchip/xc32/v2.40/bin/bin/../../lib/gcc/pic32mx/4.8.3\libgcc.a
OUTPUT(dist/default/production/MD3.X.production.elf elf32-tradlittlemips)
LOAD stack
LOAD data_init

.reginfo        0x00000000       0x18
 .reginfo       0x00000000       0x18 c:/program files/microchip/xc32/v2.40/bin/bin/../../lib/gcc/pic32mx/4.8.3/../../../../pic32mx/lib\debug-exception-return.o

.stack          0xa0002278      0x400
 .stack         0xa0002278      0x400 stack

.COHERENTBSS$   0xa0000c30      0x9c0
 .COHERENTBSS$  0xa0000c30      0x250 build/default/production/_ext/312387365/ff.o
 .bss.FATFSFileObject.FATFSFileObject
                0xa0000e80      0x240 build/default/production/_ext/312387365/ff.o
 .bss.gSYSFSMediaBuffer.gSYSFSMediaBuffer
                0xa00010c0      0x200 build/default/production/_ext/2105109636/sys_fs_media_manager.o
                0xa00010c0                gSYSFSMediaBuffer
 .bss.gSYSFSMediaBlockBuffer.gSYSFSMediaBlockBuffer
                0xa00012c0      0x200 build/default/production/_ext/2105109636/sys_fs_media_manager.o
                0xa00012c0                gSYSFSMediaBlockBuffer
 .bss.gUSBSCSIBuffer.gUSBSCSIBuffer
                0xa00014c0      0x100 build/default/production/_ext/1699675045/usb_host_scsi.o
                0xa00014c0                gUSBSCSIBuffer
 .bss.gUSBHostMSDCBW.gUSBHostMSDCBW
                0xa00015c0       0x20 build/default/production/_ext/1699675045/usb_host_msd.o
                0xa00015c0                gUSBHostMSDCBW
 .bss.gUSBHostMSDCSW.gUSBHostMSDCSW
                0xa00015e0       0x10 build/default/production/_ext/1699675045/usb_host_msd.o
                0xa00015e0                gUSBHostMSDCSW

.bss            0xa00015f0      0x948
 .bss           0xa00015f0      0x710 build/default/production/_ext/1699675045/usb_host.o
 .bss           0xa0001d00      0x238 build/default/production/_ext/312387365/ff.o

.data           0xa000005c       0xa4
 .data          0xa000005c       0xa4 c:/program files/microchip/xc32/v2.40/bin/bin/../../lib/gcc/pic32mx/4.8.3/../../../../pic32mx/lib\libc.a(_iob.o)
                0xa000005c                _Files
                0xa0000060                _iob

.bss            0xa0000100       0x90
 .bss           0xa0000100       0x90 build/default/production/_ext/121402492/sys_tmr.o

.data           0xa0000190       0x50
 .data          0xa0000190       0x50 build/default/production/_ext/1150371026/drv_usbfs_host.o
                0xa0000190                gDrvUSBFSHostInterface

.bss            0xa0001f38       0x80
 .bss           0xa0001f38       0x44 c:/program files/microchip/xc32/v2.40/bin/bin/../../lib/gcc/pic32mx/4.8.3/../../../../pic32mx/lib\libc.a(_iob.o)
                0xa0001f38                _sobuf
                0xa0001f58                _sibuf
                0xa0001f78                _outdone
 .bss           0xa0001f7c       0x3c build/default/production/_ext/1475996069/drv_tmr.o

.data           0xa0001fb8       0x5c
 .data          0xa0001fb8       0x30 build/default/production/_ext/1699675045/usb_host_scsi.o
                0xa0001fb8                gUSBHostMSDSCSIMediaFunctions
 .data          0xa0001fe8       0x2c build/default/production/_ext/2105109636/sys_fs_media_manager.o
                0xa0001fe8                gSYSFSMediaManagerObj
                0xa0002000                gSYSFSVolumeName

.data           0xa0002014       0x2c
 .data          0xa0002014       0x2c build/default/production/_ext/1699675045/usb_host_msd.o
                0xa0002014                gUSBHostMSDClientDriver

.bss            0xa0002040       0x24
 .bss           0xa0002040       0x24 c:/program files/microchip/xc32/v2.40/bin/bin/../../lib/gcc/pic32mx/4.8.3/../../../../pic32mx/lib\libpic32.a(sbrk.o)
                0xa000205c                _maxbrk
                0xa0002060                _minbrk

.bss            0xa00001e0       0x20
 .bss           0xa00001e0       0x20 c:/program files/microchip/xc32/v2.40/bin/bin/../../lib/gcc/pic32mx/4.8.3/../../../../pic32mx/lib\libc.a(malloc.o)
                0xa00001e0                __allocx
                0xa00001e8                __alloct
                0xa00001ec                __allocp
                0xa00001f0                __allocs

.bss.errno      0xa0002064        0x4
 .bss.errno     0xa0002064        0x4 c:/program files/microchip/xc32/v2.40/bin/bin/../../lib/gcc/pic32mx/4.8.3/../../../../pic32mx/lib\libpic32.a(errno.o)
                0xa0002064                errno

._debug_exception
                0xbfc00480       0x2c
 ._debug_exception
                0xbfc00480       0x2c c:/program files/microchip/xc32/v2.40/bin/bin/../../lib/gcc/pic32mx/4.8.3/../../../../pic32mx/lib\debug-exception-return.o
                0xbfc00480                __DbgExecReturn

.text._USB_HOST_MakeDeviceReady
                0x9d000000      0xa9c
 .text._USB_HOST_MakeDeviceReady
                0x9d000000      0xa9c build/default/production/_ext/1699675045/usb_host.o
                0x9d000000                _USB_HOST_MakeDeviceReady

.text.f_mkfs    0x9d000a9c      0x9b8
 .text.f_mkfs   0x9d000a9c      0x9b8 build/default/production/_ext/312387365/ff.o
                0x9d000a9c                f_mkfs

.text._vfprintf_s
                0x9d001454      0x860
 .text._vfprintf_s
                0x9d001454      0x860 c:/program files/microchip/xc32/v2.40/bin/bin/../../lib/gcc/pic32mx/4.8.3/../../../../pic32mx/lib\libc.a(doprnt_s.eo)
                0x9d001454                _vfprintf_s
                0x9d001454                _vfprintf_0

.text.SYS_FS_MEDIA_MANAGER_Tasks
                0x9d001cb4      0x770
 .text.SYS_FS_MEDIA_MANAGER_Tasks
                0x9d001cb4      0x770 build/default/production/_ext/2105109636/sys_fs_media_manager.o
                0x9d001cb4                SYS_FS_MEDIA_MANAGER_Tasks

.text.follow_path
                0x9d002424      0x704
 .text.follow_path
                0x9d002424      0x704 build/default/production/_ext/312387365/ff.o

.text._DRV_USBFS_HOST_ControlXferProcess
                0x9d002b28      0x61c
 .text._DRV_USBFS_HOST_ControlXferProcess
                0x9d002b28      0x61c build/default/production/_ext/1150371026/drv_usbfs_host.o
                0x9d002b28                _DRV_USBFS_HOST_ControlXferProcess

.text.find_volume
                0x9d003144      0x5b8
 .text.find_volume
                0x9d003144      0x5b8 build/default/production/_ext/312387365/ff.o

.text._USB_HOST_SCSI_TasksByIndex
                0x9d0036fc      0x5a0
 .text._USB_HOST_SCSI_TasksByIndex
                0x9d0036fc      0x5a0 build/default/production/_ext/1699675045/usb_host_scsi.o
                0x9d0036fc                _USB_HOST_SCSI_TasksByIndex

.text._USB_HOST_UpdateConfigurationState
                0x9d003c9c      0x568
 .text._USB_HOST_UpdateConfigurationState
                0x9d003c9c      0x568 build/default/production/_ext/1699675045/usb_host.o
                0x9d003c9c                _USB_HOST_UpdateConfigurationState

.text.f_printf  0x9d004204      0x518
 .text.f_printf
                0x9d004204      0x518 build/default/production/_ext/312387365/ff.o
                0x9d004204                f_printf

.text._DRV_USBFS_HOST_Tasks_ISR
                0x9d00471c      0x498
 .text._DRV_USBFS_HOST_Tasks_ISR
                0x9d00471c      0x498 build/default/production/_ext/1150371026/drv_usbfs_host.o
                0x9d00471c                _DRV_USBFS_HOST_Tasks_ISR

.text.dir_register
                0x9d004bb4      0x480
 .text.dir_register
                0x9d004bb4      0x480 build/default/production/_ext/312387365/ff.o

.text           0x9d005034      0x8bc
 .text          0x9d005034      0x464 c:/program files/microchip/xc32/v2.40/bin/bin/../../lib/gcc/pic32mx/4.8.3\libgcc.a(_umoddi3.o)
                0x9d005034                __umoddi3
 .text          0x9d005498      0x458 c:/program files/microchip/xc32/v2.40/bin/bin/../../lib/gcc/pic32mx/4.8.3\libgcc.a(_udivdi3.o)
                0x9d005498                __udivdi3

.text.f_setlabel
                0x9d0058f0      0x39c
 .text.f_setlabel
                0x9d0058f0      0x39c build/default/production/_ext/312387365/ff.o
                0x9d0058f0                f_setlabel

.text._DRV_USBFS_HOST_TransferPack
                0x9d005c8c      0x374
 .text._DRV_USBFS_HOST_TransferPack
                0x9d005c8c      0x374 build/default/production/_ext/1150371026/drv_usbfs_host.o
                0x9d005c8c                _DRV_USBFS_HOST_TransferPack

.text.USB_HOST_MSD_TransferErrorTasks
                0x9d006000      0x360
 .text.USB_HOST_MSD_TransferErrorTasks
                0x9d006000      0x360 build/default/production/_ext/1699675045/usb_host_msd.o
                0x9d006000                USB_HOST_MSD_TransferErrorTasks

.text.f_open    0x9d006360      0x340
 .text.f_open   0x9d006360      0x340 build/default/production/_ext/312387365/ff.o
                0x9d006360                f_open

.text.f_write   0x9d0066a0      0x334
 .text.f_write  0x9d0066a0      0x334 build/default/production/_ext/312387365/ff.o
                0x9d0066a0                f_write

.dinit          0x9d0069d4      0x330
 .dinit         0x9d0069d4      0x330 data_init

.text.SYS_TMR_Tasks
                0x9d006d04      0x308
 .text.SYS_TMR_Tasks
                0x9d006d04      0x308 build/default/production/_ext/121402492/sys_tmr.o
                0x9d006d04                SYS_TMR_Tasks

.text._USB_HOST_UpdateInterfaceStatus
                0x9d00700c      0x308
 .text._USB_HOST_UpdateInterfaceStatus
                0x9d00700c      0x308 build/default/production/_ext/1699675045/usb_host.o
                0x9d00700c                _USB_HOST_UpdateInterfaceStatus

.text.dir_find  0x9d007314      0x2f8
 .text.dir_find
                0x9d007314      0x2f8 build/default/production/_ext/312387365/ff.o

.text.f_mkdir   0x9d00760c      0x2f4
 .text.f_mkdir  0x9d00760c      0x2f4 build/default/production/_ext/312387365/ff.o
                0x9d00760c                f_mkdir

.text.USB_HOST_SCSI_TransferTasks
                0x9d007900      0x2e4
 .text.USB_HOST_SCSI_TransferTasks
                0x9d007900      0x2e4 build/default/production/_ext/1699675045/usb_host_scsi.o
                0x9d007900                USB_HOST_SCSI_TransferTasks

.text._USB_HOST_MSD_TransferTasks
                0x9d007be4      0x2e0
 .text._USB_HOST_MSD_TransferTasks
                0x9d007be4      0x2e0 build/default/production/_ext/1699675045/usb_host_msd.o
                0x9d007be4                _USB_HOST_MSD_TransferTasks

.text.f_read    0x9d007ec4      0x2d8
 .text.f_read   0x9d007ec4      0x2d8 build/default/production/_ext/312387365/ff.o
                0x9d007ec4                f_read

.text.DRV_USBFS_HOST_PipeSetup
                0x9d00819c      0x2d8
 .text.DRV_USBFS_HOST_PipeSetup
                0x9d00819c      0x2d8 build/default/production/_ext/1150371026/drv_usbfs_host.o
                0x9d00819c                DRV_USBFS_HOST_PipeSetup

.text.f_lseek   0x9d008474      0x2d4
 .text.f_lseek  0x9d008474      0x2d4 build/default/production/_ext/312387365/ff.o
                0x9d008474                f_lseek

.text.SYS_FS_FileOpen
                0x9d008748      0x2b8
 .text.SYS_FS_FileOpen
                0x9d008748      0x2b8 build/default/production/_ext/2105109636/sys_fs.o
                0x9d008748                SYS_FS_FileOpen

.text.SYS_FS_MEDIA_MANAGER_SectorWrite
                0x9d008a00      0x2b8
 .text.SYS_FS_MEDIA_MANAGER_SectorWrite
                0x9d008a00      0x2b8 build/default/production/_ext/2105109636/sys_fs_media_manager.o
                0x9d008a00                SYS_FS_MEDIA_MANAGER_SectorWrite

.text._USB_HOST_UpdateDeviceOwnership
                0x9d008cb8      0x290
 .text._USB_HOST_UpdateDeviceOwnership
                0x9d008cb8      0x290 build/default/production/_ext/1699675045/usb_host.o
                0x9d008cb8                _USB_HOST_UpdateDeviceOwnership

.text.malloc    0x9d008f48      0x28c
 .text.malloc   0x9d008f48      0x28c c:/program files/microchip/xc32/v2.40/bin/bin/../../lib/gcc/pic32mx/4.8.3/../../../../pic32mx/lib\libc.a(malloc.o)
                0x9d008f48                malloc

.text.f_getcwd  0x9d0091d4      0x27c
 .text.f_getcwd
                0x9d0091d4      0x27c build/default/production/_ext/312387365/ff.o
                0x9d0091d4                f_getcwd

.text.f_fdisk   0x9d009450      0x250
 .text.f_fdisk  0x9d009450      0x250 build/default/production/_ext/312387365/ff.o
                0x9d009450                f_fdisk

.text._DRV_USBFS_HOST_NonControlIRPProcess
                0x9d0096a0      0x248
 .text._DRV_USBFS_HOST_NonControlIRPProcess
                0x9d0096a0      0x248 build/default/production/_ext/1150371026/drv_usbfs_host.o
                0x9d0096a0                _DRV_USBFS_HOST_NonControlIRPProcess

.text.dir_read  0x9d0098e8      0x238
 .text.dir_read
                0x9d0098e8      0x238 build/default/production/_ext/312387365/ff.o

.text.SYS_FS_Mount
                0x9d009b20      0x234
 .text.SYS_FS_Mount
                0x9d009b20      0x234 build/default/production/_ext/2105109636/sys_fs.o
                0x9d009b20                SYS_FS_Mount

.text.USB_HOST_Tasks
                0x9d009d54      0x220
 .text.USB_HOST_Tasks
                0x9d009d54      0x220 build/default/production/_ext/1699675045/usb_host.o
                0x9d009d54                USB_HOST_Tasks

.text._USB_HOST_MSD_InterfaceTasks
                0x9d009f74      0x210
 .text._USB_HOST_MSD_InterfaceTasks
                0x9d009f74      0x210 build/default/production/_ext/1699675045/usb_host_msd.o
                0x9d009f74                _USB_HOST_MSD_InterfaceTasks

.text.USB_HOST_DevicePipeOpen
                0x9d00a184      0x20c
 .text.USB_HOST_DevicePipeOpen
                0x9d00a184      0x20c build/default/production/_ext/1699675045/usb_host.o
                0x9d00a184                USB_HOST_DevicePipeOpen

.text.USB_HOST_DeviceTransfer
                0x9d00a390      0x204
 .text.USB_HOST_DeviceTransfer
                0x9d00a390      0x204 build/default/production/_ext/1699675045/usb_host.o
                0x9d00a390                USB_HOST_DeviceTransfer

.text.f_rename  0x9d00a594      0x200
 .text.f_rename
                0x9d00a594      0x200 build/default/production/_ext/312387365/ff.o
                0x9d00a594                f_rename

.text.get_fileinfo
                0x9d00a794      0x1fc
 .text.get_fileinfo
                0x9d00a794      0x1fc build/default/production/_ext/312387365/ff.o

.text.USB_HOST_DeviceEnumerate
                0x9d00a990      0x1fc
 .text.USB_HOST_DeviceEnumerate
                0x9d00a990      0x1fc build/default/production/_ext/1699675045/usb_host.o
                0x9d00a990                USB_HOST_DeviceEnumerate

.text.dir_next  0x9d00ab8c      0x1ec
 .text.dir_next
                0x9d00ab8c      0x1ec build/default/production/_ext/312387365/ff.o

.text._USB_HOST_DeviceControlTransferCallback
                0x9d00ad78      0x1e4
 .text._USB_HOST_DeviceControlTransferCallback
                0x9d00ad78      0x1e4 build/default/production/_ext/1699675045/usb_host.o
                0x9d00ad78                _USB_HOST_DeviceControlTransferCallback

.text.DRV_USBFS_HOST_PipeClose
                0x9d00af5c      0x1d8
 .text.DRV_USBFS_HOST_PipeClose
                0x9d00af5c      0x1d8 build/default/production/_ext/1150371026/drv_usbfs_host.o
                0x9d00af5c                DRV_USBFS_HOST_PipeClose

.text._USB_HOST_SCSI_DetachDetectTasks
                0x9d00b134      0x1d0
 .text._USB_HOST_SCSI_DetachDetectTasks
                0x9d00b134      0x1d0 build/default/production/_ext/1699675045/usb_host_scsi.o
                0x9d00b134                _USB_HOST_SCSI_DetachDetectTasks

.text.put_fat   0x9d00b304      0x1c8
 .text.put_fat  0x9d00b304      0x1c8 build/default/production/_ext/312387365/ff.o
                0x9d00b304                put_fat

.text.f_getfree
                0x9d00b4cc      0x1c4
 .text.f_getfree
                0x9d00b4cc      0x1c4 build/default/production/_ext/312387365/ff.o
                0x9d00b4cc                f_getfree

.text.USB_HOST_MSD_Transfer
                0x9d00b690      0x1c0
 .text.USB_HOST_MSD_Transfer
                0x9d00b690      0x1c0 build/default/production/_ext/1699675045/usb_host_msd.o
                0x9d00b690                USB_HOST_MSD_Transfer

.text.DRV_TMR_Initialize
                0x9d00b850      0x1a4
 .text.DRV_TMR_Initialize
                0x9d00b850      0x1a4 build/default/production/_ext/1475996069/drv_tmr.o
                0x9d00b850                DRV_TMR_Initialize

.text.create_chain
                0x9d00b9f4      0x1a4
 .text.create_chain
                0x9d00b9f4      0x1a4 build/default/production/_ext/312387365/ff.o

.text._USB_HOST_SCSI_Transfer
                0x9d00bb98      0x198
 .text._USB_HOST_SCSI_Transfer
                0x9d00bb98      0x198 build/default/production/_ext/1699675045/usb_host_scsi.o
                0x9d00bb98                _USB_HOST_SCSI_Transfer

.text.APP_Tasks
                0x9d00bd30      0x194
 .text.APP_Tasks
                0x9d00bd30      0x194 build/default/production/_ext/1360937237/app.o
                0x9d00bd30                APP_Tasks

.text._sbrk_init
                0x9d00bec4      0x194
 .text._sbrk_init
                0x9d00bec4      0x194 c:/program files/microchip/xc32/v2.40/bin/bin/../../lib/gcc/pic32mx/4.8.3/../../../../pic32mx/lib\libpic32.a(sbrk.o)
                0x9d00bec4                _sbrk_init

.text.get_fat   0x9d00c058      0x18c
 .text.get_fat  0x9d00c058      0x18c build/default/production/_ext/312387365/ff.o
                0x9d00c058                get_fat

.text._SYS_TMR_ClientCreate
                0x9d00c1e4      0x18c
 .text._SYS_TMR_ClientCreate
                0x9d00c1e4      0x18c build/default/production/_ext/121402492/sys_tmr.o

.text._USB_HOST_MSD_InterfaceAssign
                0x9d00c370      0x18c
 .text._USB_HOST_MSD_InterfaceAssign
                0x9d00c370      0x18c build/default/production/_ext/1699675045/usb_host_msd.o
                0x9d00c370                _USB_HOST_MSD_InterfaceAssign

.text._DRV_USBFS_HOST_TransferSchedule
                0x9d00c4fc      0x188
 .text._DRV_USBFS_HOST_TransferSchedule
                0x9d00c4fc      0x188 build/default/production/_ext/1150371026/drv_usbfs_host.o
                0x9d00c4fc                _DRV_USBFS_HOST_TransferSchedule

.text.f_unlink  0x9d00c684      0x184
 .text.f_unlink
                0x9d00c684      0x184 build/default/production/_ext/312387365/ff.o
                0x9d00c684                f_unlink

.text.f_opendir
                0x9d00c808      0x17c
 .text.f_opendir
                0x9d00c808      0x17c build/default/production/_ext/312387365/ff.o
                0x9d00c808                f_opendir

.text._USB_HOST_DeviceConfigurationDescriptorErrorCheck
                0x9d00c984      0x174
 .text._USB_HOST_DeviceConfigurationDescriptorErrorCheck
                0x9d00c984      0x174 build/default/production/_ext/1699675045/usb_host.o
                0x9d00c984                _USB_HOST_DeviceConfigurationDescriptorErrorCheck

.text.USB_HOST_DeviceEndpointDescriptorQuery
                0x9d00caf8      0x174
 .text.USB_HOST_DeviceEndpointDescriptorQuery
                0x9d00caf8      0x174 build/default/production/_ext/1699675045/usb_host.o
                0x9d00caf8                USB_HOST_DeviceEndpointDescriptorQuery

.text.DRV_USBFS_HOST_IRPCancel
                0x9d00cc6c      0x16c
 .text.DRV_USBFS_HOST_IRPCancel
                0x9d00cc6c      0x16c build/default/production/_ext/1150371026/drv_usbfs_host.o
                0x9d00cc6c                DRV_USBFS_HOST_IRPCancel

.text.SYS_FS_GetDisk
                0x9d00cdd8      0x168
 .text.SYS_FS_GetDisk
                0x9d00cdd8      0x168 build/default/production/_ext/2105109636/sys_fs.o

.text           0x9d00cf40      0x2d0
 .text          0x9d00cf40      0x168 c:/program files/microchip/xc32/v2.40/bin/bin/../../lib/gcc/pic32mx/4.8.3/../../../../pic32mx/lib\libpic32.a(memcpy.o)
                0x9d00cf40                memcpy
 .text          0x9d00d0a8      0x168 c:/program files/microchip/xc32/v2.40/bin/bin/../../lib/gcc/pic32mx/4.8.3/../../../../pic32mx/lib\libpic32.a(strlen.o)
                0x9d00d0a8                strlen

.text.USB_HOST_DeviceDenumerate
                0x9d00d210      0x164
 .text.USB_HOST_DeviceDenumerate
                0x9d00d210      0x164 build/default/production/_ext/1699675045/usb_host.o
                0x9d00d210                USB_HOST_DeviceDenumerate

.text.f_truncate
                0x9d00d374      0x160
 .text.f_truncate
                0x9d00d374      0x160 build/default/production/_ext/312387365/ff.o
                0x9d00d374                f_truncate

.text._USB_HOST_ConfigurationDescriptorParse
                0x9d00d4d4      0x15c
 .text._USB_HOST_ConfigurationDescriptorParse
                0x9d00d4d4      0x15c build/default/production/_ext/1699675045/usb_host.o
                0x9d00d4d4                _USB_HOST_ConfigurationDescriptorParse

.text.USB_HOST_DeviceInterfaceDescriptorQuery
                0x9d00d630      0x154
 .text.USB_HOST_DeviceInterfaceDescriptorQuery
                0x9d00d630      0x154 build/default/production/_ext/1699675045/usb_host.o
                0x9d00d630                USB_HOST_DeviceInterfaceDescriptorQuery

.text.USB_HOST_DevicePipeHaltClear
                0x9d00d784      0x154
 .text.USB_HOST_DevicePipeHaltClear
                0x9d00d784      0x154 build/default/production/_ext/1699675045/usb_host.o
                0x9d00d784                USB_HOST_DevicePipeHaltClear

.text.dir_sdi   0x9d00d8d8      0x150
 .text.dir_sdi  0x9d00d8d8      0x150 build/default/production/_ext/312387365/ff.o

.text.USB_HOST_DeviceControlTransfer
                0x9d00da28      0x150
 .text.USB_HOST_DeviceControlTransfer
                0x9d00da28      0x150 build/default/production/_ext/1699675045/usb_host.o
                0x9d00da28                USB_HOST_DeviceControlTransfer

.text.USB_HOST_DeviceGeneralInterfaceDescriptorQuery
                0x9d00db78      0x150
 .text.USB_HOST_DeviceGeneralInterfaceDescriptorQuery
                0x9d00db78      0x150 build/default/production/_ext/1699675045/usb_host.o
                0x9d00db78                USB_HOST_DeviceGeneralInterfaceDescriptorQuery

.text.fputc     0x9d00dcc8      0x144
 .text.fputc    0x9d00dcc8      0x144 c:/program files/microchip/xc32/v2.40/bin/bin/../../lib/gcc/pic32mx/4.8.3/../../../../pic32mx/lib\libc.a(_fputc_simple.o)
                0x9d00dcc8                fputc

.text.f_sync    0x9d00de0c      0x140
 .text.f_sync   0x9d00de0c      0x140 build/default/production/_ext/312387365/ff.o
                0x9d00de0c                f_sync

.text.DRV_USBFS_Initialize
                0x9d00df4c      0x13c
 .text.DRV_USBFS_Initialize
                0x9d00df4c      0x13c build/default/production/_ext/1150371026/drv_usbfs.o
                0x9d00df4c                DRV_USBFS_Initialize

.text._DRV_USBFS_HOST_Initialize
                0x9d00e088      0x13c
 .text._DRV_USBFS_HOST_Initialize
                0x9d00e088      0x13c build/default/production/_ext/1150371026/drv_usbfs_host.o
                0x9d00e088                _DRV_USBFS_HOST_Initialize

.text.SYS_Initialize
                0x9d00e1c4      0x13c
 .text.SYS_Initialize
                0x9d00e1c4      0x13c build/default/production/_ext/1688732426/system_init.o
                0x9d00e1c4                SYS_Initialize

.text.SYS_FS_Unmount
                0x9d00e300      0x138
 .text.SYS_FS_Unmount
                0x9d00e300      0x138 build/default/production/_ext/2105109636/sys_fs.o
                0x9d00e300                SYS_FS_Unmount

.text.f_getlabel
                0x9d00e438      0x138
 .text.f_getlabel
                0x9d00e438      0x138 build/default/production/_ext/312387365/ff.o
                0x9d00e438                f_getlabel

.text.IntHandlerDrvTmrInstance0
                0x9d00e570      0x134
 .text.IntHandlerDrvTmrInstance0
                0x9d00e570      0x134 build/default/production/_ext/1688732426/system_interrupt.o
                0x9d00e570                IntHandlerDrvTmrInstance0

.text._IntHandler_USB_stub
                0x9d00e6a4      0x134
 .text._IntHandler_USB_stub
                0x9d00e6a4      0x134 build/default/production/_ext/1688732426/system_interrupt.o
                0x9d00e6a4                _IntHandler_USB_stub

.text.DRV_TMR_AlarmRegister
                0x9d00e7d8      0x12c
 .text.DRV_TMR_AlarmRegister
                0x9d00e7d8      0x12c build/default/production/_ext/1475996069/drv_tmr.o
                0x9d00e7d8                DRV_TMR_AlarmRegister

.text._flsbuf   0x9d00e904      0x12c
 .text._flsbuf  0x9d00e904      0x12c c:/program files/microchip/xc32/v2.40/bin/bin/../../lib/gcc/pic32mx/4.8.3/../../../../pic32mx/lib\libc.a(_flsbuf_simple.o)
                0x9d00e904                _flsbuf

.rodata         0x9d00ea30      0x248
 .rodata        0x9d00ea30      0x128 build/default/production/_ext/1688732426/system_exceptions.o
 .rodata        0x9d00eb58      0x120 build/default/production/_ext/312387365/ff.o
                0x9d00ebf0                FatFsFunctions

.text           0x9d00ec78      0x120
 .text          0x9d00ec78      0x120 c:/program files/microchip/xc32/v2.40/bin/bin/../../lib/gcc/pic32mx/4.8.3/../../../../pic32mx/lib\libpic32.a(strcmp.o)
                0x9d00ec78                strcmp

.text.sync_fs   0x9d00ed98      0x11c
 .text.sync_fs  0x9d00ed98      0x11c build/default/production/_ext/312387365/ff.o

.text.USB_HOST_Initialize
                0x9d00eeb4      0x11c
 .text.USB_HOST_Initialize
                0x9d00eeb4      0x11c build/default/production/_ext/1699675045/usb_host.o
                0x9d00eeb4                USB_HOST_Initialize

.text.DRV_USBFS_HOST_IRPSubmit
                0x9d00efd0      0x10c
 .text.DRV_USBFS_HOST_IRPSubmit
                0x9d00efd0      0x10c build/default/production/_ext/1150371026/drv_usbfs_host.o
                0x9d00efd0                DRV_USBFS_HOST_IRPSubmit

.rodata         0x9d00f0dc      0x104
 .rodata        0x9d00f0dc      0x104 c:/program files/microchip/xc32/v2.40/bin/bin/../../lib/gcc/pic32mx/4.8.3/../../../../pic32mx/lib\libc.a(ctype.o)
                0x9d00f0dc                _ctype

.text._DRV_TMR_ClockSourceSet
                0x9d00f1e0       0xf4
 .text._DRV_TMR_ClockSourceSet
                0x9d00f1e0       0xf4 build/default/production/_ext/1475996069/drv_tmr.o

.text.f_mount   0x9d00f2d4       0xf4
 .text.f_mount  0x9d00f2d4       0xf4 build/default/production/_ext/312387365/ff.o
                0x9d00f2d4                f_mount

.text._DRV_USBFS_HOST_NonControlSendToken
                0x9d00f3c8       0xf4
 .text._DRV_USBFS_HOST_NonControlSendToken
                0x9d00f3c8       0xf4 build/default/production/_ext/1150371026/drv_usbfs_host.o
                0x9d00f3c8                _DRV_USBFS_HOST_NonControlSendToken

.text._DRV_USBFS_HOST_CalculateControlBW
                0x9d00f4bc       0xf4
 .text._DRV_USBFS_HOST_CalculateControlBW
                0x9d00f4bc       0xf4 build/default/production/_ext/1150371026/drv_usbfs_host.o
                0x9d00f4bc                _DRV_USBFS_HOST_CalculateControlBW

.text._SYS_TMR_ClientParamSet
                0x9d00f5b0       0xe8
 .text._SYS_TMR_ClientParamSet
                0x9d00f5b0       0xe8 build/default/production/_ext/121402492/sys_tmr.o

.text.f_unmount
                0x9d00f698       0xe0
 .text.f_unmount
                0x9d00f698       0xe0 build/default/production/_ext/312387365/ff.o
                0x9d00f698                f_unmount

.text.SYS_DEVCON_PerformanceConfig
                0x9d00f778       0xe0
 .text.SYS_DEVCON_PerformanceConfig
                0x9d00f778       0xe0 build/default/production/_ext/340578644/sys_devcon_pic32mx.o
                0x9d00f778                SYS_DEVCON_PerformanceConfig

.text.remove_chain
                0x9d00f858       0xdc
 .text.remove_chain
                0x9d00f858       0xdc build/default/production/_ext/312387365/ff.o

.text._DRV_USBFS_HOST_CalculateNonControlBW
                0x9d00f934       0xdc
 .text._DRV_USBFS_HOST_CalculateNonControlBW
                0x9d00f934       0xdc build/default/production/_ext/1150371026/drv_usbfs_host.o
                0x9d00f934                _DRV_USBFS_HOST_CalculateNonControlBW

.text.general_exception
                0x9d00fa10       0xdc
 .text.general_exception
                0x9d00fa10       0xdc c:/program files/microchip/xc32/v2.40/bin/bin/../../lib/gcc/pic32mx/4.8.3/../../../../pic32mx/lib\libpic32.a(general-exception.o)
                0x9d00fa10                _general_exception_context

.text.DRV_TMR_CounterFrequencyGet
                0x9d00faec       0xd8
 .text.DRV_TMR_CounterFrequencyGet
                0x9d00faec       0xd8 build/default/production/_ext/1475996069/drv_tmr.o
                0x9d00faec                DRV_TMR_CounterFrequencyGet

.text._mon_putc
                0x9d00fbc4       0xd8
 .text._mon_putc
                0x9d00fbc4       0xd8 c:/program files/microchip/xc32/v2.40/bin/bin/../../lib/gcc/pic32mx/4.8.3/../../../../pic32mx/lib\libpic32.a(_mon_putc.o)
                0x9d00fbc4                _mon_putc

.text.check_fs  0x9d00fc9c       0xd4
 .text.check_fs
                0x9d00fc9c       0xd4 build/default/production/_ext/312387365/ff.o

.text._USB_HOST_MSD_InstanceRelease
                0x9d00fd70       0xd4
 .text._USB_HOST_MSD_InstanceRelease
                0x9d00fd70       0xd4 build/default/production/_ext/1699675045/usb_host_msd.o
                0x9d00fd70                _USB_HOST_MSD_InstanceRelease

.text.SYS_FS_FileWrite
                0x9d00fe44       0xd0
 .text.SYS_FS_FileWrite
                0x9d00fe44       0xd0 build/default/production/_ext/2105109636/sys_fs.o
                0x9d00fe44                SYS_FS_FileWrite

.text.f_readdir
                0x9d00ff14       0xd0
 .text.f_readdir
                0x9d00ff14       0xd0 build/default/production/_ext/312387365/ff.o
                0x9d00ff14                f_readdir

.rodata         0x9d00ffe4       0xd0
 .rodata        0x9d00ffe4       0xd0 build/default/production/_ext/1150371026/drv_usbfs_host.o
                0x9d00ffe4                gDrvUSBLSTableBW
                0x9d010004                gDrvUSBFSTableBW

.text.DRV_TMR_Tasks
                0x9d0100b4       0xcc
 .text.DRV_TMR_Tasks
                0x9d0100b4       0xcc build/default/production/_ext/1475996069/drv_tmr.o
                0x9d0100b4                DRV_TMR_Tasks

.text.sync_window
                0x9d010180       0xcc
 .text.sync_window
                0x9d010180       0xcc build/default/production/_ext/312387365/ff.o

.text.f_chmod   0x9d01024c       0xcc
 .text.f_chmod  0x9d01024c       0xcc build/default/production/_ext/312387365/ff.o
                0x9d01024c                f_chmod

.text.f_utime   0x9d010318       0xcc
 .text.f_utime  0x9d010318       0xcc build/default/production/_ext/312387365/ff.o
                0x9d010318                f_utime

.text.dir_remove
                0x9d0103e4       0xcc
 .text.dir_remove
                0x9d0103e4       0xcc build/default/production/_ext/312387365/ff.o

.text._DRV_USBFS_HOST_ControlSendToken
                0x9d0104b0       0xcc
 .text._DRV_USBFS_HOST_ControlSendToken
                0x9d0104b0       0xcc build/default/production/_ext/1150371026/drv_usbfs_host.o
                0x9d0104b0                _DRV_USBFS_HOST_ControlSendToken

.text._DRV_TMR_ClockPrescaleSet
                0x9d01057c       0xc8
 .text._DRV_TMR_ClockPrescaleSet
                0x9d01057c       0xc8 build/default/production/_ext/1475996069/drv_tmr.o

.text.SYS_FS_FileClose
                0x9d010644       0xc8
 .text.SYS_FS_FileClose
                0x9d010644       0xc8 build/default/production/_ext/2105109636/sys_fs.o
                0x9d010644                SYS_FS_FileClose

.text._USB_HOST_FindClassSubClassProtocolDriver
                0x9d01070c       0xc8
 .text._USB_HOST_FindClassSubClassProtocolDriver
                0x9d01070c       0xc8 build/default/production/_ext/1699675045/usb_host.o
                0x9d01070c                _USB_HOST_FindClassSubClassProtocolDriver

.text.DRV_USBFS_HOST_ROOT_HUB_OperationEnable
                0x9d0107d4       0xc8
 .text.DRV_USBFS_HOST_ROOT_HUB_OperationEnable
                0x9d0107d4       0xc8 build/default/production/_ext/1150371026/drv_usbfs_host.o
                0x9d0107d4                DRV_USBFS_HOST_ROOT_HUB_OperationEnable

.text._sbrk     0x9d01089c       0xc8
 .text._sbrk    0x9d01089c       0xc8 c:/program files/microchip/xc32/v2.40/bin/bin/../../lib/gcc/pic32mx/4.8.3/../../../../pic32mx/lib\libpic32.a(sbrk.o)
                0x9d01089c                _sbrk

.text.SYS_TMR_Initialize
                0x9d010964       0xc0
 .text.SYS_TMR_Initialize
                0x9d010964       0xc0 build/default/production/_ext/121402492/sys_tmr.o
                0x9d010964                SYS_TMR_Initialize

.rodata         0x9d010a28       0xc0
 .rodata        0x9d010a28       0xc0 c:/program files/microchip/xc32/v2.40/bin/bin/../../lib/gcc/pic32mx/4.8.3/../../../../pic32mx/lib\libc.a(doprnt_s.eo)

.text.f_chdir   0x9d010ae8       0xb8
 .text.f_chdir  0x9d010ae8       0xb8 build/default/production/_ext/312387365/ff.o
                0x9d010ae8                f_chdir

.text.SYS_FS_MEDIA_MANAGER_MediaStatusGet
                0x9d010ba0       0xb4
 .text.SYS_FS_MEDIA_MANAGER_MediaStatusGet
                0x9d010ba0       0xb4 build/default/production/_ext/2105109636/sys_fs_media_manager.o
                0x9d010ba0                SYS_FS_MEDIA_MANAGER_MediaStatusGet

.text.dir_alloc
                0x9d010c54       0xb4
 .text.dir_alloc
                0x9d010c54       0xb4 build/default/production/_ext/312387365/ff.o

.text.SYS_PORTS_Initialize
                0x9d010d08       0xb0
 .text.SYS_PORTS_Initialize
                0x9d010d08       0xb0 build/default/production/_ext/822048611/sys_ports_static.o
                0x9d010d08                SYS_PORTS_Initialize

.text.inc_lock  0x9d010db8       0xac
 .text.inc_lock
                0x9d010db8       0xac build/default/production/_ext/312387365/ff.o

.text.f_gets    0x9d010e64       0xac
 .text.f_gets   0x9d010e64       0xac build/default/production/_ext/312387365/ff.o
                0x9d010e64                f_gets

.rodata         0x9d010f10       0xac
 .rodata        0x9d010f10       0xac build/default/production/_ext/1688732426/system_init.o
                0x9d010f10                usbHostInitData
                0x9d010f1c                hcdTable
                0x9d010f24                USBTPList
                0x9d010f38                sysTmrInitData
                0x9d010f40                sysFSInit
                0x9d010f64                sysfsMountTable
                0x9d010f74                drvUSBFSInit
                0x9d010fa0                drvTmr0InitData

.text           0x9d010fbc       0xa8
 .text          0x9d010fbc       0xa8 c:/program files/microchip/xc32/v2.40/bin/bin/../../lib/gcc/pic32mx/4.8.3/../../../../pic32mx/lib\libpic32.a(memset.o)
                0x9d010fbc                memset

.text.get_ldnumber
                0x9d011064       0xa4
 .text.get_ldnumber
                0x9d011064       0xa4 build/default/production/_ext/312387365/ff.o

.text.USB_HOST_DeviceIADQuery
                0x9d011108       0xa4
 .text.USB_HOST_DeviceIADQuery
                0x9d011108       0xa4 build/default/production/_ext/1699675045/usb_host.o
                0x9d011108                USB_HOST_DeviceIADQuery

.text.SYS_FS_MEDIA_MANAGER_SectorRead
                0x9d0111ac       0x9c
 .text.SYS_FS_MEDIA_MANAGER_SectorRead
                0x9d0111ac       0x9c build/default/production/_ext/2105109636/sys_fs_media_manager.o
                0x9d0111ac                SYS_FS_MEDIA_MANAGER_SectorRead

.text.USB_HOST_SCSI_Deinitialize
                0x9d011248       0x9c
 .text.USB_HOST_SCSI_Deinitialize
                0x9d011248       0x9c build/default/production/_ext/1699675045/usb_host_scsi.o
                0x9d011248                USB_HOST_SCSI_Deinitialize

.text.write     0x9d0112e4       0x9c
 .text.write    0x9d0112e4       0x9c c:/program files/microchip/xc32/v2.40/bin/bin/../../lib/gcc/pic32mx/4.8.3/../../../../pic32mx/lib\libpic32.a(write.o)
                0x9d0112e4                write

.text._SYS_FS_MEDIA_MANAGER_HandleMediaDetach
                0x9d011380       0x98
 .text._SYS_FS_MEDIA_MANAGER_HandleMediaDetach
                0x9d011380       0x98 build/default/production/_ext/2105109636/sys_fs_media_manager.o

.text.f_puts    0x9d011418       0x98
 .text.f_puts   0x9d011418       0x98 build/default/production/_ext/312387365/ff.o
                0x9d011418                f_puts

.text._USB_HOST_SCSI_BlockTransferCallback
                0x9d0114b0       0x98
 .text._USB_HOST_SCSI_BlockTransferCallback
                0x9d0114b0       0x98 build/default/production/_ext/1699675045/usb_host_scsi.o
                0x9d0114b0                _USB_HOST_SCSI_BlockTransferCallback

.text           0x9d011548       0x98
 .text          0x9d011548       0x98 c:/program files/microchip/xc32/v2.40/bin/bin/../../lib/gcc/pic32mx/4.8.3/../../../../pic32mx/lib\libpic32.a(memcmp.o)
                0x9d011548                memcmp

.text.chk_lock  0x9d0115e0       0x94
 .text.chk_lock
                0x9d0115e0       0x94 build/default/production/_ext/312387365/ff.o

.text.f_stat    0x9d011674       0x94
 .text.f_stat   0x9d011674       0x94 build/default/production/_ext/312387365/ff.o
                0x9d011674                f_stat

.text.SYS_FS_Initialize
                0x9d011708       0x90
 .text.SYS_FS_Initialize
                0x9d011708       0x90 build/default/production/_ext/2105109636/sys_fs.o
                0x9d011708                SYS_FS_Initialize

.text.SYS_FS_MEDIA_MANAGER_VolumePropertyGet
                0x9d011798       0x90
 .text.SYS_FS_MEDIA_MANAGER_VolumePropertyGet
                0x9d011798       0x90 build/default/production/_ext/2105109636/sys_fs_media_manager.o
                0x9d011798                SYS_FS_MEDIA_MANAGER_VolumePropertyGet

.text.USB_HOST_DevicePipeClose
                0x9d011828       0x8c
 .text.USB_HOST_DevicePipeClose
                0x9d011828       0x8c build/default/production/_ext/1699675045/usb_host.o
                0x9d011828                USB_HOST_DevicePipeClose

.text.DRV_USBFS_Tasks_ISR
                0x9d0118b4       0x88
 .text.DRV_USBFS_Tasks_ISR
                0x9d0118b4       0x88 build/default/production/_ext/1150371026/drv_usbfs.o
                0x9d0118b4                DRV_USBFS_Tasks_ISR

.text._USB_HOST_DataTransferIRPCallback
                0x9d01193c       0x88
 .text._USB_HOST_DataTransferIRPCallback
                0x9d01193c       0x88 build/default/production/_ext/1699675045/usb_host.o
                0x9d01193c                _USB_HOST_DataTransferIRPCallback

.text._USB_HOST_UpdateDeviceTask
                0x9d0119c4       0x88
 .text._USB_HOST_UpdateDeviceTask
                0x9d0119c4       0x88 build/default/production/_ext/1699675045/usb_host.o
                0x9d0119c4                _USB_HOST_UpdateDeviceTask

.text._DRV_TMR_ModuleObj
                0x9d011a4c       0x84
 .text._DRV_TMR_ModuleObj
                0x9d011a4c       0x84 build/default/production/_ext/1475996069/drv_tmr.o

.text           0x9d011ad0       0x84
 .text          0x9d011ad0       0x84 c:/program files/microchip/xc32/v2.40/bin/bin/../../lib/gcc/pic32mx/4.8.3/../../../../pic32mx/lib\libpic32.a(pic32_data_init.o)
                0x9d011ad0                __pic32_data_init

.text.putc_bfd  0x9d011b54       0x80
 .text.putc_bfd
                0x9d011b54       0x80 build/default/production/_ext/312387365/ff.o

.text.disk_write
                0x9d011bd4       0x80
 .text.disk_write
                0x9d011bd4       0x80 build/default/production/_ext/456076708/diskio.o
                0x9d011bd4                disk_write

.text._USB_HOST_ReleaseInterfaceDrivers
                0x9d011c54       0x80
 .text._USB_HOST_ReleaseInterfaceDrivers
                0x9d011c54       0x80 build/default/production/_ext/1699675045/usb_host.o
                0x9d011c54                _USB_HOST_ReleaseInterfaceDrivers

.text.USB_HOST_DeviceInterfaceRelease
                0x9d011cd4       0x80
 .text.USB_HOST_DeviceInterfaceRelease
                0x9d011cd4       0x80 build/default/production/_ext/1699675045/usb_host.o
                0x9d011cd4                USB_HOST_DeviceInterfaceRelease

.text.USB_HOST_SCSI_Initialize
                0x9d011d54       0x80
 .text.USB_HOST_SCSI_Initialize
                0x9d011d54       0x80 build/default/production/_ext/1699675045/usb_host_scsi.o
                0x9d011d54                USB_HOST_SCSI_Initialize

.text.move_window
                0x9d011dd4       0x7c
 .text.move_window
                0x9d011dd4       0x7c build/default/production/_ext/312387365/ff.o

.text.f_putc    0x9d011e50       0x7c
 .text.f_putc   0x9d011e50       0x7c build/default/production/_ext/312387365/ff.o
                0x9d011e50                f_putc

.text.f_getclusters
                0x9d011ecc       0x78
 .text.f_getclusters
                0x9d011ecc       0x78 build/default/production/_ext/312387365/ff.o
                0x9d011ecc                f_getclusters

.text.disk_ioctl
                0x9d011f44       0x78
 .text.disk_ioctl
                0x9d011f44       0x78 build/default/production/_ext/456076708/diskio.o
                0x9d011f44                disk_ioctl

.text.SYS_FS_MEDIA_MANAGER_IsFSFat
                0x9d011fbc       0x74
 .text.SYS_FS_MEDIA_MANAGER_IsFSFat
                0x9d011fbc       0x74 build/default/production/_ext/2105109636/sys_fs_media_manager.o

.text.validate  0x9d012030       0x74
 .text.validate
                0x9d012030       0x74 build/default/production/_ext/312387365/ff.o

.text.f_closedir
                0x9d0120a4       0x74
 .text.f_closedir
                0x9d0120a4       0x74 build/default/production/_ext/312387365/ff.o
                0x9d0120a4                f_closedir

.text.disk_read
                0x9d012118       0x74
 .text.disk_read
                0x9d012118       0x74 build/default/production/_ext/456076708/diskio.o
                0x9d012118                disk_read

.text._USB_HOST_FreeAddress
                0x9d01218c       0x74
 .text._USB_HOST_FreeAddress
                0x9d01218c       0x74 build/default/production/_ext/1699675045/usb_host.o
                0x9d01218c                _USB_HOST_FreeAddress

.text.strncpy   0x9d012200       0x74
 .text.strncpy  0x9d012200       0x74 c:/program files/microchip/xc32/v2.40/bin/bin/../../lib/gcc/pic32mx/4.8.3/../../../../pic32mx/lib\libc.a(strncpy.o)
                0x9d012200                strncpy

.text._DRV_TMR_Resume
                0x9d012274       0x70
 .text._DRV_TMR_Resume
                0x9d012274       0x70 build/default/production/_ext/1475996069/drv_tmr.o

.text.strncmp   0x9d0122e4       0x70
 .text.strncmp  0x9d0122e4       0x70 c:/program files/microchip/xc32/v2.40/bin/bin/../../lib/gcc/pic32mx/4.8.3/../../../../pic32mx/lib\libc.a(strncmp.o)
                0x9d0122e4                strncmp

.text.DRV_USBFS_ClientEventCallBackSet
                0x9d012354       0x6c
 .text.DRV_USBFS_ClientEventCallBackSet
                0x9d012354       0x6c build/default/production/_ext/1150371026/drv_usbfs.o
                0x9d012354                DRV_USBFS_ClientEventCallBackSet

.text.DRV_USBFS_HOST_ROOT_HUB_PortReset
                0x9d0123c0       0x6c
 .text.DRV_USBFS_HOST_ROOT_HUB_PortReset
                0x9d0123c0       0x6c build/default/production/_ext/1150371026/drv_usbfs_host.o
                0x9d0123c0                DRV_USBFS_HOST_ROOT_HUB_PortReset

.text._USB_HOST_MSD_InterfaceEventHandler
                0x9d01242c       0x6c
 .text._USB_HOST_MSD_InterfaceEventHandler
                0x9d01242c       0x6c build/default/production/_ext/1699675045/usb_host_msd.o
                0x9d01242c                _USB_HOST_MSD_InterfaceEventHandler

.text.DRV_TMR_Start
                0x9d012498       0x64
 .text.DRV_TMR_Start
                0x9d012498       0x64 build/default/production/_ext/1475996069/drv_tmr.o
                0x9d012498                DRV_TMR_Start

.text.dec_lock  0x9d0124fc       0x64
 .text.dec_lock
                0x9d0124fc       0x64 build/default/production/_ext/312387365/ff.o

.text.SYS_FS_MEDIA_MANAGER_EventHandler
                0x9d012560       0x60
 .text.SYS_FS_MEDIA_MANAGER_EventHandler
                0x9d012560       0x60 build/default/production/_ext/2105109636/sys_fs_media_manager.o
                0x9d012560                SYS_FS_MEDIA_MANAGER_EventHandler

.text._USB_HOST_FindEndOfDescriptor
                0x9d0125c0       0x60
 .text._USB_HOST_FindEndOfDescriptor
                0x9d0125c0       0x60 build/default/production/_ext/1699675045/usb_host.o
                0x9d0125c0                _USB_HOST_FindEndOfDescriptor

.text.DRV_USBFS_HOST_EventsEnable
                0x9d012620       0x60
 .text.DRV_USBFS_HOST_EventsEnable
                0x9d012620       0x60 build/default/production/_ext/1150371026/drv_usbfs_host.o
                0x9d012620                DRV_USBFS_HOST_EventsEnable

.text.DRV_TMR_AlarmEnable
                0x9d012680       0x5c
 .text.DRV_TMR_AlarmEnable
                0x9d012680       0x5c build/default/production/_ext/1475996069/drv_tmr.o
                0x9d012680                DRV_TMR_AlarmEnable

.text.SYS_FS_MEDIA_MANAGER_Register
                0x9d0126dc       0x5c
 .text.SYS_FS_MEDIA_MANAGER_Register
                0x9d0126dc       0x5c build/default/production/_ext/2105109636/sys_fs_media_manager.o
                0x9d0126dc                SYS_FS_MEDIA_MANAGER_Register

.text._USB_HOST_NoInterfacesOwned
                0x9d012738       0x5c
 .text._USB_HOST_NoInterfacesOwned
                0x9d012738       0x5c build/default/production/_ext/1699675045/usb_host.o
                0x9d012738                _USB_HOST_NoInterfacesOwned

.text.DRV_TMR_Open
                0x9d012794       0x58
 .text.DRV_TMR_Open
                0x9d012794       0x58 build/default/production/_ext/1475996069/drv_tmr.o
                0x9d012794                DRV_TMR_Open

.text.SYS_DEVCON_SystemUnlock
                0x9d0127ec       0x58
 .text.SYS_DEVCON_SystemUnlock
                0x9d0127ec       0x58 build/default/production/_ext/340578644/sys_devcon.o
                0x9d0127ec                SYS_DEVCON_SystemUnlock

.text.f_close   0x9d012844       0x54
 .text.f_close  0x9d012844       0x54 build/default/production/_ext/312387365/ff.o
                0x9d012844                f_close

.text.SYS_INT_SourceDisable
                0x9d012898       0x54
 .text.SYS_INT_SourceDisable
                0x9d012898       0x54 build/default/production/_ext/1020727214/sys_int_pic32.o
                0x9d012898                SYS_INT_SourceDisable

.text.main_entry
                0x9d0128ec       0x54
 .text.main_entry
                0x9d0128ec       0x54 C:\Users\Booo_kat\AppData\Local\Temp\cc6Zd3pF.o
                0x9d012920                __crt0_exit

.text._DRV_TMR_Suspend
                0x9d012940       0x50
 .text._DRV_TMR_Suspend
                0x9d012940       0x50 build/default/production/_ext/1475996069/drv_tmr.o

.text.sbrk      0x9d012990       0x50
 .text.sbrk     0x9d012990       0x50 c:/program files/microchip/xc32/v2.40/bin/bin/../../lib/gcc/pic32mx/4.8.3/../../../../pic32mx/lib\libpic32.a(sbrk.o)
                0x9d012990                sbrk

.text._USB_HOST_IRPResultToHostResult
                0x9d0129e0       0x4c
 .text._USB_HOST_IRPResultToHostResult
                0x9d0129e0       0x4c build/default/production/_ext/1699675045/usb_host.o
                0x9d0129e0                _USB_HOST_IRPResultToHostResult

.text.USB_HOST_DeviceControlPipeOpen
                0x9d012a2c       0x4c
 .text.USB_HOST_DeviceControlPipeOpen
                0x9d012a2c       0x4c build/default/production/_ext/1699675045/usb_host.o
                0x9d012a2c                USB_HOST_DeviceControlPipeOpen

.text.DRV_TMR_Close
                0x9d012a78       0x48
 .text.DRV_TMR_Close
                0x9d012a78       0x48 build/default/production/_ext/1475996069/drv_tmr.o
                0x9d012a78                DRV_TMR_Close

.text.SYS_FS_MEDIA_MANAGER_TransferTask
                0x9d012ac0       0x48
 .text.SYS_FS_MEDIA_MANAGER_TransferTask
                0x9d012ac0       0x48 build/default/production/_ext/2105109636/sys_fs_media_manager.o
                0x9d012ac0                SYS_FS_MEDIA_MANAGER_TransferTask

.text.SYS_CLK_SecondaryOscillatorEnable
                0x9d012b08       0x48
 .text.SYS_CLK_SecondaryOscillatorEnable
                0x9d012b08       0x48 build/default/production/_ext/639803181/sys_clk_pic32mx.o
                0x9d012b08                SYS_CLK_SecondaryOscillatorEnable

.text.SYS_DEVCON_SystemLock
                0x9d012b50       0x48
 .text.SYS_DEVCON_SystemLock
                0x9d012b50       0x48 build/default/production/_ext/340578644/sys_devcon.o
                0x9d012b50                SYS_DEVCON_SystemLock

.text.SYS_Tasks
                0x9d012b98       0x48
 .text.SYS_Tasks
                0x9d012b98       0x48 build/default/production/_ext/1688732426/system_tasks.o
                0x9d012b98                SYS_Tasks

.text._bootstrap_exception_handler
                0x9d012be0       0x48
 .text._bootstrap_exception_handler
                0x9d012be0       0x48 c:/program files/microchip/xc32/v2.40/bin/bin/../../lib/gcc/pic32mx/4.8.3/../../../../pic32mx/lib\libpic32.a(default-bootstrap-exception-handler.o)
                0x9d012be0                _bootstrap_exception_handler

.vector_default
                0x9d012c28       0x48
 .vector_default
                0x9d012c28       0x48 c:/program files/microchip/xc32/v2.40/bin/bin/../../lib/gcc/pic32mx/4.8.3/../../../../pic32mx/lib\libpic32.a(defaultinterrupt.o)
                0x9d012c28                _DefaultInterrupt

.text.DRV_USBFS_Open
                0x9d012c70       0x44
 .text.DRV_USBFS_Open
                0x9d012c70       0x44 build/default/production/_ext/1150371026/drv_usbfs.o
                0x9d012c70                DRV_USBFS_Open

.text.USB_HOST_SCSI_MediaGeometryGet
                0x9d012cb4       0x44
 .text.USB_HOST_SCSI_MediaGeometryGet
                0x9d012cb4       0x44 build/default/production/_ext/1699675045/usb_host_scsi.o
                0x9d012cb4                USB_HOST_SCSI_MediaGeometryGet

.text.SYS_CLK_Initialize
                0x9d012cf8       0x44
 .text.SYS_CLK_Initialize
                0x9d012cf8       0x44 build/default/production/_ext/639803181/sys_clk_pic32mx.o
                0x9d012cf8                SYS_CLK_Initialize

.text           0x9d012d3c       0x44
 .text          0x9d012d3c       0x44 c:/program files/microchip/xc32/v2.40/bin/bin/../../lib/gcc/pic32mx/4.8.3/../../../../pic32mx/lib\pic32_software_reset.o
                0x9d012d3c                __pic32_software_reset

.rodata         0x9d012d80       0x40
 .rodata        0x9d012d80       0x40 build/default/production/_ext/1360937237/app.o
                0x9d012db0                writeData

.text.ld_clust  0x9d012dc0       0x40
 .text.ld_clust
                0x9d012dc0       0x40 build/default/production/_ext/312387365/ff.o

.text._USB_HOST_MSD_HostResultToMSDResultMap
                0x9d012e00       0x40
 .text._USB_HOST_MSD_HostResultToMSDResultMap
                0x9d012e00       0x40 build/default/production/_ext/1699675045/usb_host_msd.o
                0x9d012e00                _USB_HOST_MSD_HostResultToMSDResultMap

.text._general_exception_handler
                0x9d012e40       0x40
 .text._general_exception_handler
                0x9d012e40       0x40 build/default/production/_ext/1688732426/system_exceptions.o
                0x9d012e40                _general_exception_handler

.text._printf_s
                0x9d012e80       0x40
 .text._printf_s
                0x9d012e80       0x40 c:/program files/microchip/xc32/v2.40/bin/bin/../../lib/gcc/pic32mx/4.8.3/../../../../pic32mx/lib\libc.a(printf_s.eo)
                0x9d012e80                _printf_0
                0x9d012e80                _printf_s

.text._USB_HOST_MSD_Initialize
                0x9d012ec0       0x3c
 .text._USB_HOST_MSD_Initialize
                0x9d012ec0       0x3c build/default/production/_ext/1699675045/usb_host_msd.o
                0x9d012ec0                _USB_HOST_MSD_Initialize

.text.USB_HOST_SCSI_Open
                0x9d012efc       0x3c
 .text.USB_HOST_SCSI_Open
                0x9d012efc       0x3c build/default/production/_ext/1699675045/usb_host_scsi.o
                0x9d012efc                USB_HOST_SCSI_Open

.text.Test_Callback
                0x9d012f38       0x38
 .text.Test_Callback
                0x9d012f38       0x38 build/default/production/_ext/1360937237/app.o
                0x9d012f38                Test_Callback

.text.SYS_FS_MEDIA_MANAGER_EventHandlerSet
                0x9d012f70       0x38
 .text.SYS_FS_MEDIA_MANAGER_EventHandlerSet
                0x9d012f70       0x38 build/default/production/_ext/2105109636/sys_fs_media_manager.o
                0x9d012f70                SYS_FS_MEDIA_MANAGER_EventHandlerSet

.text._USB_HOST_RootHubEventDisable
                0x9d012fa8       0x38
 .text._USB_HOST_RootHubEventDisable
                0x9d012fa8       0x38 build/default/production/_ext/1699675045/usb_host.o
                0x9d012fa8                _USB_HOST_RootHubEventDisable

.text.SYS_FS_MEDIA_MANAGER_GetMediaGeometry
                0x9d012fe0       0x34
 .text.SYS_FS_MEDIA_MANAGER_GetMediaGeometry
                0x9d012fe0       0x34 build/default/production/_ext/2105109636/sys_fs_media_manager.o
                0x9d012fe0                SYS_FS_MEDIA_MANAGER_GetMediaGeometry

.text.APP_SYSFSEventHandler
                0x9d013014       0x30
 .text.APP_SYSFSEventHandler
                0x9d013014       0x30 build/default/production/_ext/1360937237/app.o
                0x9d013014                APP_SYSFSEventHandler

.rodata         0x9d013044       0x30
 .rodata        0x9d013044       0x30 build/default/production/_ext/2105109636/sys_fs_media_manager.o
                0x9d013054                gPartitionTypeOffset

.text.sum_sfn   0x9d013074       0x30
 .text.sum_sfn  0x9d013074       0x30 build/default/production/_ext/312387365/ff.o

.text.clust2sect
                0x9d0130a4       0x30
 .text.clust2sect
                0x9d0130a4       0x30 build/default/production/_ext/312387365/ff.o
                0x9d0130a4                clust2sect

.text._USB_HOST_RootHubEventEnable
                0x9d0130d4       0x30
 .text._USB_HOST_RootHubEventEnable
                0x9d0130d4       0x30 build/default/production/_ext/1699675045/usb_host.o
                0x9d0130d4                _USB_HOST_RootHubEventEnable

.text._USB_HOST_GetNewAddress
                0x9d013104       0x30
 .text._USB_HOST_GetNewAddress
                0x9d013104       0x30 build/default/production/_ext/1699675045/usb_host.o
                0x9d013104                _USB_HOST_GetNewAddress

.text.DRV_USBFS_HOST_EventsDisable
                0x9d013134       0x30
 .text.DRV_USBFS_HOST_EventsDisable
                0x9d013134       0x30 build/default/production/_ext/1150371026/drv_usbfs_host.o
                0x9d013134                DRV_USBFS_HOST_EventsDisable

.text.USB_HOST_SCSI_MediaStatusGet
                0x9d013164       0x30
 .text.USB_HOST_SCSI_MediaStatusGet
                0x9d013164       0x30 build/default/production/_ext/1699675045/usb_host_scsi.o
                0x9d013164                USB_HOST_SCSI_MediaStatusGet

.text._USB_HOST_SCSI_ReadCapacityCommand
                0x9d013194       0x30
 .text._USB_HOST_SCSI_ReadCapacityCommand
                0x9d013194       0x30 build/default/production/_ext/1699675045/usb_host_scsi.o
                0x9d013194                _USB_HOST_SCSI_ReadCapacityCommand

.text.free      0x9d0131c4       0x30
 .text.free     0x9d0131c4       0x30 c:/program files/microchip/xc32/v2.40/bin/bin/../../lib/gcc/pic32mx/4.8.3/../../../../pic32mx/lib\libc.a(malloc.o)
                0x9d0131c4                free

.text._SYS_TMR_AlarmCallback
                0x9d0131f4       0x2c
 .text._SYS_TMR_AlarmCallback
                0x9d0131f4       0x2c build/default/production/_ext/121402492/sys_tmr.o

.text.DRV_USBFS_Close
                0x9d013220       0x2c
 .text.DRV_USBFS_Close
                0x9d013220       0x2c build/default/production/_ext/1150371026/drv_usbfs.o
                0x9d013220                DRV_USBFS_Close

.text.DRV_USBFS_HOST_ROOT_HUB_OperationIsEnabled
                0x9d01324c       0x2c
 .text.DRV_USBFS_HOST_ROOT_HUB_OperationIsEnabled
                0x9d01324c       0x2c build/default/production/_ext/1150371026/drv_usbfs_host.o
                0x9d01324c                DRV_USBFS_HOST_ROOT_HUB_OperationIsEnabled

.text.DRV_USBFS_HOST_ROOT_HUB_PortResetIsComplete
                0x9d013278       0x2c
 .text.DRV_USBFS_HOST_ROOT_HUB_PortResetIsComplete
                0x9d013278       0x2c build/default/production/_ext/1150371026/drv_usbfs_host.o
                0x9d013278                DRV_USBFS_HOST_ROOT_HUB_PortResetIsComplete

.text._USB_HOST_MSD_InterfaceHandleToMSDInstance
                0x9d0132a4       0x2c
 .text._USB_HOST_MSD_InterfaceHandleToMSDInstance
                0x9d0132a4       0x2c build/default/production/_ext/1699675045/usb_host_msd.o
                0x9d0132a4                _USB_HOST_MSD_InterfaceHandleToMSDInstance

.text.USB_HOST_SCSI_EventHandlerSet
                0x9d0132d0       0x2c
 .text.USB_HOST_SCSI_EventHandlerSet
                0x9d0132d0       0x2c build/default/production/_ext/1699675045/usb_host_scsi.o
                0x9d0132d0                USB_HOST_SCSI_EventHandlerSet

.text.USB_HOST_SCSI_SectorRead
                0x9d0132fc       0x2c
 .text.USB_HOST_SCSI_SectorRead
                0x9d0132fc       0x2c build/default/production/_ext/1699675045/usb_host_scsi.o
                0x9d0132fc                USB_HOST_SCSI_SectorRead

.text._USB_HOST_SCSI_ModeSense
                0x9d013328       0x2c
 .text._USB_HOST_SCSI_ModeSense
                0x9d013328       0x2c build/default/production/_ext/1699675045/usb_host_scsi.o
                0x9d013328                _USB_HOST_SCSI_ModeSense

.text._USB_HOST_SCSI_LUNHandleToSCSIInstance
                0x9d013354       0x2c
 .text._USB_HOST_SCSI_LUNHandleToSCSIInstance
                0x9d013354       0x2c build/default/production/_ext/1699675045/usb_host_scsi.o
                0x9d013354                _USB_HOST_SCSI_LUNHandleToSCSIInstance

.text.USB_HOST_SCSI_Tasks
                0x9d013380       0x2c
 .text.USB_HOST_SCSI_Tasks
                0x9d013380       0x2c build/default/production/_ext/1699675045/usb_host_scsi.o
                0x9d013380                USB_HOST_SCSI_Tasks

.text._stub_sbd_memlayout
                0x9d0133ac       0x2c
 .text._stub_sbd_memlayout
                0x9d0133ac       0x2c c:/program files/microchip/xc32/v2.40/bin/bin/../../lib/gcc/pic32mx/4.8.3/../../../../pic32mx/lib\libpic32.a(sbrk.o)
                0x9d0133ac                _sbd_memlayout
                0x9d0133ac                _stub_sbd_memlayout

.text.diskEventHandler
                0x9d0133d8       0x28
 .text.diskEventHandler
                0x9d0133d8       0x28 build/default/production/_ext/456076708/diskio.o
                0x9d0133d8                diskEventHandler

.text.USB_HOST_SCSI_SectorWrite
                0x9d013400       0x28
 .text.USB_HOST_SCSI_SectorWrite
                0x9d013400       0x28 build/default/production/_ext/1699675045/usb_host_scsi.o
                0x9d013400                USB_HOST_SCSI_SectorWrite

.text.BSP_USBVBUSPowerEnable
                0x9d013428       0x28
 .text.BSP_USBVBUSPowerEnable
                0x9d013428       0x28 build/default/production/_ext/74298950/bsp.o
                0x9d013428                BSP_USBVBUSPowerEnable

.text.mem_cpy   0x9d013450       0x24
 .text.mem_cpy  0x9d013450       0x24 build/default/production/_ext/312387365/ff.o

.text.ff_wtoupper
                0x9d013474       0x24
 .text.ff_wtoupper
                0x9d013474       0x24 build/default/production/_ext/312387365/ff.o
                0x9d013474                ff_wtoupper

.text.disk_initialize
                0x9d013498       0x24
 .text.disk_initialize
                0x9d013498       0x24 build/default/production/_ext/456076708/diskio.o
                0x9d013498                disk_initialize

.text.DRV_USBFS_HOST_ROOT_HUB_PortSpeedGet
                0x9d0134bc       0x24
 .text.DRV_USBFS_HOST_ROOT_HUB_PortSpeedGet
                0x9d0134bc       0x24 build/default/production/_ext/1150371026/drv_usbfs_host.o
                0x9d0134bc                DRV_USBFS_HOST_ROOT_HUB_PortSpeedGet

.text.DRV_USBFS_HOST_ROOT_HUB_BusSpeedGet
                0x9d0134e0       0x24
 .text.DRV_USBFS_HOST_ROOT_HUB_BusSpeedGet
                0x9d0134e0       0x24 build/default/production/_ext/1150371026/drv_usbfs_host.o
                0x9d0134e0                DRV_USBFS_HOST_ROOT_HUB_BusSpeedGet

.text.DRV_USBFS_HOST_ROOT_HUB_MaximumCurrentGet
                0x9d013504       0x24
 .text.DRV_USBFS_HOST_ROOT_HUB_MaximumCurrentGet
                0x9d013504       0x24 build/default/production/_ext/1150371026/drv_usbfs_host.o
                0x9d013504                DRV_USBFS_HOST_ROOT_HUB_MaximumCurrentGet

.text.DRV_USBFS_HOST_ROOT_HUB_Initialize
                0x9d013528       0x24
 .text.DRV_USBFS_HOST_ROOT_HUB_Initialize
                0x9d013528       0x24 build/default/production/_ext/1150371026/drv_usbfs_host.o
                0x9d013528                DRV_USBFS_HOST_ROOT_HUB_Initialize

.text._USB_HOST_SCSI_RequestSenseCommand
                0x9d01354c       0x24
 .text._USB_HOST_SCSI_RequestSenseCommand
                0x9d01354c       0x24 build/default/production/_ext/1699675045/usb_host_scsi.o
                0x9d01354c                _USB_HOST_SCSI_RequestSenseCommand

.text._USB_HOST_SCSI_InquiryResponseCommand
                0x9d013570       0x24
 .text._USB_HOST_SCSI_InquiryResponseCommand
                0x9d013570       0x24 build/default/production/_ext/1699675045/usb_host_scsi.o
                0x9d013570                _USB_HOST_SCSI_InquiryResponseCommand

.text.main      0x9d013594       0x20
 .text.main     0x9d013594       0x20 build/default/production/_ext/1360937237/main.o
                0x9d013594                main

.text.SYS_INT_Disable
                0x9d0135b4       0x20
 .text.SYS_INT_Disable
                0x9d0135b4       0x20 build/default/production/_ext/1020727214/sys_int_pic32.o
                0x9d0135b4                SYS_INT_Disable

.rodata         0x9d0135d4       0x1c
 .rodata        0x9d0135d4       0x1c build/default/production/_ext/1475996069/drv_tmr.o

.text.SYS_FS_Tasks
                0x9d0135f0       0x1c
 .text.SYS_FS_Tasks
                0x9d0135f0       0x1c build/default/production/_ext/2105109636/sys_fs.o
                0x9d0135f0                SYS_FS_Tasks

.text.SYS_FS_EventHandlerSet
                0x9d01360c       0x1c
 .text.SYS_FS_EventHandlerSet
                0x9d01360c       0x1c build/default/production/_ext/2105109636/sys_fs.o
                0x9d01360c                SYS_FS_EventHandlerSet

.text.mem_set   0x9d013628       0x1c
 .text.mem_set  0x9d013628       0x1c build/default/production/_ext/312387365/ff.o

.text.clear_lock
                0x9d013644       0x1c
 .text.clear_lock
                0x9d013644       0x1c build/default/production/_ext/312387365/ff.o

.text.get_fattime
                0x9d013660       0x1c
 .text.get_fattime
                0x9d013660       0x1c build/default/production/_ext/456076708/diskio.o
                0x9d013660                get_fattime

.text.SYS_INT_StatusGetAndDisable
                0x9d01367c       0x1c
 .text.SYS_INT_StatusGetAndDisable
                0x9d01367c       0x1c build/default/production/_ext/1020727214/sys_int_pic32.o
                0x9d01367c                SYS_INT_StatusGetAndDisable

.text.SYS_INT_StatusRestore
                0x9d013698       0x1c
 .text.SYS_INT_StatusRestore
                0x9d013698       0x1c build/default/production/_ext/1020727214/sys_int_pic32.o
                0x9d013698                SYS_INT_StatusRestore

.text.SYS_TMR_CallbackPeriodic
                0x9d0136b4       0x1c
 .text.SYS_TMR_CallbackPeriodic
                0x9d0136b4       0x1c build/default/production/_ext/121402492/sys_tmr.o
                0x9d0136b4                SYS_TMR_CallbackPeriodic

.text.SYS_TMR_CallbackSingle
                0x9d0136d0       0x1c
 .text.SYS_TMR_CallbackSingle
                0x9d0136d0       0x1c build/default/production/_ext/121402492/sys_tmr.o
                0x9d0136d0                SYS_TMR_CallbackSingle

.text.DRV_USBFS_HOST_ROOT_HUB_PortNumbersGet
                0x9d0136ec       0x1c
 .text.DRV_USBFS_HOST_ROOT_HUB_PortNumbersGet
                0x9d0136ec       0x1c build/default/production/_ext/1150371026/drv_usbfs_host.o
                0x9d0136ec                DRV_USBFS_HOST_ROOT_HUB_PortNumbersGet

.text._USB_HOST_MSD_InterfaceRelease
                0x9d013708       0x1c
 .text._USB_HOST_MSD_InterfaceRelease
                0x9d013708       0x1c build/default/production/_ext/1699675045/usb_host_msd.o
                0x9d013708                _USB_HOST_MSD_InterfaceRelease

.text._USB_HOST_SCSI_CommandCallback
                0x9d013724       0x1c
 .text._USB_HOST_SCSI_CommandCallback
                0x9d013724       0x1c build/default/production/_ext/1699675045/usb_host_scsi.o
                0x9d013724                _USB_HOST_SCSI_CommandCallback

.text._USB_HOST_SCSI_TestUnitReadyCommand
                0x9d013740       0x1c
 .text._USB_HOST_SCSI_TestUnitReadyCommand
                0x9d013740       0x1c build/default/production/_ext/1699675045/usb_host_scsi.o
                0x9d013740                _USB_HOST_SCSI_TestUnitReadyCommand

.text.SYS_FS_MEDIA_MANAGER_DeRegister
                0x9d01375c       0x18
 .text.SYS_FS_MEDIA_MANAGER_DeRegister
                0x9d01375c       0x18 build/default/production/_ext/2105109636/sys_fs_media_manager.o
                0x9d01375c                SYS_FS_MEDIA_MANAGER_DeRegister

.text.f_chdrive
                0x9d013774       0x18
 .text.f_chdrive
                0x9d013774       0x18 build/default/production/_ext/312387365/ff.o
                0x9d013774                f_chdrive

.text._USB_HOST_MSD_ControlTransferCallback
                0x9d01378c       0x18
 .text._USB_HOST_MSD_ControlTransferCallback
                0x9d01378c       0x18 build/default/production/_ext/1699675045/usb_host_msd.o
                0x9d01378c                _USB_HOST_MSD_ControlTransferCallback

.text.SYS_DEVCON_JTAGEnable
                0x9d0137a4       0x18
 .text.SYS_DEVCON_JTAGEnable
                0x9d0137a4       0x18 build/default/production/_ext/340578644/sys_devcon.o
                0x9d0137a4                SYS_DEVCON_JTAGEnable

.text           0x9d0137bc       0x18
 .text          0x9d0137bc       0x18 c:/program files/microchip/xc32/v2.40/bin/bin/../../lib/gcc/pic32mx/4.8.3/../../../../pic32mx/lib\libpic32.a(default-nmi-handler.o)
                0x9d0137bc                _nmi_handler

.text.APP_Initialize
                0x9d0137d4       0x14
 .text.APP_Initialize
                0x9d0137d4       0x14 build/default/production/_ext/1360937237/app.o
                0x9d0137d4                APP_Initialize

.text.f_eof     0x9d0137e8       0x14
 .text.f_eof    0x9d0137e8       0x14 build/default/production/_ext/312387365/ff.o
                0x9d0137e8                f_eof

.text.SYS_INT_Initialize
                0x9d0137fc       0x14
 .text.SYS_INT_Initialize
                0x9d0137fc       0x14 build/default/production/_ext/1020727214/sys_int_pic32.o
                0x9d0137fc                SYS_INT_Initialize

.text.SYS_DEVCON_Initialize
                0x9d013810       0x14
 .text.SYS_DEVCON_Initialize
                0x9d013810       0x14 build/default/production/_ext/340578644/sys_devcon.o
                0x9d013810                SYS_DEVCON_Initialize

.text.BSP_Initialize
                0x9d013824       0x14
 .text.BSP_Initialize
                0x9d013824       0x14 build/default/production/_ext/74298950/bsp.o
                0x9d013824                BSP_Initialize

.text.USB_HOST_DeviceEndpointQueryContextClear
                0x9d013838       0x10
 .text.USB_HOST_DeviceEndpointQueryContextClear
                0x9d013838       0x10 build/default/production/_ext/1699675045/usb_host.o
                0x9d013838                USB_HOST_DeviceEndpointQueryContextClear

.text.SYS_FS_MEDIA_MANAGER_RegisterTransferHandler
                0x9d013848        0xc
 .text.SYS_FS_MEDIA_MANAGER_RegisterTransferHandler
                0x9d013848        0xc build/default/production/_ext/2105109636/sys_fs_media_manager.o
                0x9d013848                SYS_FS_MEDIA_MANAGER_RegisterTransferHandler

.text.f_error   0x9d013854        0xc
 .text.f_error  0x9d013854        0xc build/default/production/_ext/312387365/ff.o
                0x9d013854                f_error

.text._USB_HOST_TimerCallback
                0x9d013860        0xc
 .text._USB_HOST_TimerCallback
                0x9d013860        0xc build/default/production/_ext/1699675045/usb_host.o
                0x9d013860                _USB_HOST_TimerCallback

.text._USB_HOST_SCSI_TimerCallback
                0x9d01386c        0xc
 .text._USB_HOST_SCSI_TimerCallback
                0x9d01386c        0xc build/default/production/_ext/1699675045/usb_host_scsi.o
                0x9d01386c                _USB_HOST_SCSI_TimerCallback

.text.SYS_CLK_SystemFrequencyGet
                0x9d013878        0xc
 .text.SYS_CLK_SystemFrequencyGet
                0x9d013878        0xc build/default/production/_ext/639803181/sys_clk_pic32mx.o
                0x9d013878                SYS_CLK_SystemFrequencyGet

.text.SYS_CLK_PeripheralFrequencyGet
                0x9d013884        0xc
 .text.SYS_CLK_PeripheralFrequencyGet
                0x9d013884        0xc build/default/production/_ext/639803181/sys_clk_pic32mx.o
                0x9d013884                SYS_CLK_PeripheralFrequencyGet

.rodata         0x9d013890        0x8
 .rodata        0x9d013890        0x8 build/default/production/_ext/2105109636/sys_fs.o

.text.f_tell    0x9d013898        0x8
 .text.f_tell   0x9d013898        0x8 build/default/production/_ext/312387365/ff.o
                0x9d013898                f_tell

.text.f_size    0x9d0138a0        0x8
 .text.f_size   0x9d0138a0        0x8 build/default/production/_ext/312387365/ff.o
                0x9d0138a0                f_size

.text.disk_status
                0x9d0138a8        0x8
 .text.disk_status
                0x9d0138a8        0x8 build/default/production/_ext/456076708/diskio.o
                0x9d0138a8                disk_status

.text.DRV_USBFS_Tasks
                0x9d0138b0        0x8
 .text.DRV_USBFS_Tasks
                0x9d0138b0        0x8 build/default/production/_ext/1150371026/drv_usbfs.o
                0x9d0138b0                DRV_USBFS_Tasks

.text.DRV_USBFS_HOST_ROOT_HUB_PortResume
                0x9d0138b8        0x8
 .text.DRV_USBFS_HOST_ROOT_HUB_PortResume
                0x9d0138b8        0x8 build/default/production/_ext/1150371026/drv_usbfs_host.o
                0x9d0138b8                DRV_USBFS_HOST_ROOT_HUB_PortResume

.text.DRV_USBFS_HOST_ROOT_HUB_PortSuspend
                0x9d0138c0        0x8
 .text.DRV_USBFS_HOST_ROOT_HUB_PortSuspend
                0x9d0138c0        0x8 build/default/production/_ext/1150371026/drv_usbfs_host.o
                0x9d0138c0                DRV_USBFS_HOST_ROOT_HUB_PortSuspend

.text._USB_HOST_MSD_Deinitialize
                0x9d0138c8        0x8
 .text._USB_HOST_MSD_Deinitialize
                0x9d0138c8        0x8 build/default/production/_ext/1699675045/usb_host_msd.o
                0x9d0138c8                _USB_HOST_MSD_Deinitialize

.text._USB_HOST_MSD_Reinitialize
                0x9d0138d0        0x8
 .text._USB_HOST_MSD_Reinitialize
                0x9d0138d0        0x8 build/default/production/_ext/1699675045/usb_host_msd.o
                0x9d0138d0                _USB_HOST_MSD_Reinitialize

.text.USB_HOST_SCSI_Close
                0x9d0138d8        0x8
 .text.USB_HOST_SCSI_Close
                0x9d0138d8        0x8 build/default/production/_ext/1699675045/usb_host_scsi.o
                0x9d0138d8                USB_HOST_SCSI_Close

.text.BSP_USBVBUSSwitchOverCurrentDetect
                0x9d0138e0        0x8
 .text.BSP_USBVBUSSwitchOverCurrentDetect
                0x9d0138e0        0x8 build/default/production/_ext/74298950/bsp.o
                0x9d0138e0                BSP_USBVBUSSwitchOverCurrentDetect

.text._on_reset
                0x9d0138e8        0x8
 .text._on_reset
                0x9d0138e8        0x8 c:/program files/microchip/xc32/v2.40/bin/bin/../../lib/gcc/pic32mx/4.8.3/../../../../pic32mx/lib\libpic32.a(default-on-reset.o)
                0x9d0138e8                _on_reset

.text._on_bootstrap
                0x9d0138f0        0x8
 .text._on_bootstrap
                0x9d0138f0        0x8 c:/program files/microchip/xc32/v2.40/bin/bin/../../lib/gcc/pic32mx/4.8.3/../../../../pic32mx/lib\libpic32.a(default-on-bootstrap.o)
                0x9d0138f0                _on_bootstrap
